Archive member included because of file (symbol)

c:/program files (x86)/codesourcery/sourcery_codebench_lite_for_arm_eabi/bin/../lib/gcc/arm-none-eabi/4.6.1\libgcc.a(_divsi3.o)
                              sata_cmd.o (__aeabi_idiv)
c:/program files (x86)/codesourcery/sourcery_codebench_lite_for_arm_eabi/bin/../lib/gcc/arm-none-eabi/4.6.1\libgcc.a(_dvmd_tls.o)
                              c:/program files (x86)/codesourcery/sourcery_codebench_lite_for_arm_eabi/bin/../lib/gcc/arm-none-eabi/4.6.1\libgcc.a(_divsi3.o) (__aeabi_idiv0)
c:/program files (x86)/codesourcery/sourcery_codebench_lite_for_arm_eabi/bin/../lib/gcc/arm-none-eabi/4.6.1\libgcc.a(_aeabi_uldivmod.o)
                              misc.o (__aeabi_uldivmod)
c:/program files (x86)/codesourcery/sourcery_codebench_lite_for_arm_eabi/bin/../lib/gcc/arm-none-eabi/4.6.1\libgcc.a(bpabi.o)
                              c:/program files (x86)/codesourcery/sourcery_codebench_lite_for_arm_eabi/bin/../lib/gcc/arm-none-eabi/4.6.1\libgcc.a(_aeabi_uldivmod.o) (__gnu_uldivmod_helper)
c:/program files (x86)/codesourcery/sourcery_codebench_lite_for_arm_eabi/bin/../lib/gcc/arm-none-eabi/4.6.1\libgcc.a(_divdi3.o)
                              c:/program files (x86)/codesourcery/sourcery_codebench_lite_for_arm_eabi/bin/../lib/gcc/arm-none-eabi/4.6.1\libgcc.a(bpabi.o) (__divdi3)
c:/program files (x86)/codesourcery/sourcery_codebench_lite_for_arm_eabi/bin/../lib/gcc/arm-none-eabi/4.6.1\libgcc.a(_udivdi3.o)
                              c:/program files (x86)/codesourcery/sourcery_codebench_lite_for_arm_eabi/bin/../lib/gcc/arm-none-eabi/4.6.1\libgcc.a(bpabi.o) (__udivdi3)
c:/program files (x86)/codesourcery/sourcery_codebench_lite_for_arm_eabi/bin/../lib/gcc/arm-none-eabi/4.6.1\libgcc.a(_udivsi3.o)
                              c:/program files (x86)/codesourcery/sourcery_codebench_lite_for_arm_eabi/bin/../lib/gcc/arm-none-eabi/4.6.1\libgcc.a(_divdi3.o) (__aeabi_uidiv)
c:/program files (x86)/codesourcery/sourcery_codebench_lite_for_arm_eabi/bin/../lib/gcc/arm-none-eabi/4.6.1\libgcc.a(_clzsi2.o)
                              c:/program files (x86)/codesourcery/sourcery_codebench_lite_for_arm_eabi/bin/../lib/gcc/arm-none-eabi/4.6.1\libgcc.a(_divdi3.o) (__clzsi2)
c:/program files (x86)/codesourcery/sourcery_codebench_lite_for_arm_eabi/bin/../lib/gcc/arm-none-eabi/4.6.1/../../../../arm-none-eabi/lib\libc.a(lib_a-fflush.o)
                              uart.o (fflush)
c:/program files (x86)/codesourcery/sourcery_codebench_lite_for_arm_eabi/bin/../lib/gcc/arm-none-eabi/4.6.1/../../../../arm-none-eabi/lib\libc.a(lib_a-findfp.o)
                              c:/program files (x86)/codesourcery/sourcery_codebench_lite_for_arm_eabi/bin/../lib/gcc/arm-none-eabi/4.6.1/../../../../arm-none-eabi/lib\libc.a(lib_a-fflush.o) (__sinit)
c:/program files (x86)/codesourcery/sourcery_codebench_lite_for_arm_eabi/bin/../lib/gcc/arm-none-eabi/4.6.1/../../../../arm-none-eabi/lib\libc.a(lib_a-freer.o)
                              c:/program files (x86)/codesourcery/sourcery_codebench_lite_for_arm_eabi/bin/../lib/gcc/arm-none-eabi/4.6.1/../../../../arm-none-eabi/lib\libc.a(lib_a-fflush.o) (_free_r)
c:/program files (x86)/codesourcery/sourcery_codebench_lite_for_arm_eabi/bin/../lib/gcc/arm-none-eabi/4.6.1/../../../../arm-none-eabi/lib\libc.a(lib_a-fwalk.o)
                              c:/program files (x86)/codesourcery/sourcery_codebench_lite_for_arm_eabi/bin/../lib/gcc/arm-none-eabi/4.6.1/../../../../arm-none-eabi/lib\libc.a(lib_a-findfp.o) (_fwalk)
c:/program files (x86)/codesourcery/sourcery_codebench_lite_for_arm_eabi/bin/../lib/gcc/arm-none-eabi/4.6.1/../../../../arm-none-eabi/lib\libc.a(lib_a-impure.o)
                              c:/program files (x86)/codesourcery/sourcery_codebench_lite_for_arm_eabi/bin/../lib/gcc/arm-none-eabi/4.6.1/../../../../arm-none-eabi/lib\libc.a(lib_a-fflush.o) (_global_impure_ptr)
c:/program files (x86)/codesourcery/sourcery_codebench_lite_for_arm_eabi/bin/../lib/gcc/arm-none-eabi/4.6.1/../../../../arm-none-eabi/lib\libc.a(lib_a-mallocr.o)
                              c:/program files (x86)/codesourcery/sourcery_codebench_lite_for_arm_eabi/bin/../lib/gcc/arm-none-eabi/4.6.1/../../../../arm-none-eabi/lib\libc.a(lib_a-findfp.o) (_malloc_r)
c:/program files (x86)/codesourcery/sourcery_codebench_lite_for_arm_eabi/bin/../lib/gcc/arm-none-eabi/4.6.1/../../../../arm-none-eabi/lib\libc.a(lib_a-memset.o)
                              c:/program files (x86)/codesourcery/sourcery_codebench_lite_for_arm_eabi/bin/../lib/gcc/arm-none-eabi/4.6.1/../../../../arm-none-eabi/lib\libc.a(lib_a-findfp.o) (memset)
c:/program files (x86)/codesourcery/sourcery_codebench_lite_for_arm_eabi/bin/../lib/gcc/arm-none-eabi/4.6.1/../../../../arm-none-eabi/lib\libc.a(lib_a-mlock.o)
                              c:/program files (x86)/codesourcery/sourcery_codebench_lite_for_arm_eabi/bin/../lib/gcc/arm-none-eabi/4.6.1/../../../../arm-none-eabi/lib\libc.a(lib_a-freer.o) (__malloc_lock)
c:/program files (x86)/codesourcery/sourcery_codebench_lite_for_arm_eabi/bin/../lib/gcc/arm-none-eabi/4.6.1/../../../../arm-none-eabi/lib\libc.a(lib_a-rand.o)
                              misc.o (srand)
c:/program files (x86)/codesourcery/sourcery_codebench_lite_for_arm_eabi/bin/../lib/gcc/arm-none-eabi/4.6.1/../../../../arm-none-eabi/lib\libc.a(lib_a-sbrkr.o)
                              c:/program files (x86)/codesourcery/sourcery_codebench_lite_for_arm_eabi/bin/../lib/gcc/arm-none-eabi/4.6.1/../../../../arm-none-eabi/lib\libc.a(lib_a-freer.o) (_sbrk_r)
c:/program files (x86)/codesourcery/sourcery_codebench_lite_for_arm_eabi/bin/../lib/gcc/arm-none-eabi/4.6.1/../../../../arm-none-eabi/lib\libc.a(lib_a-sprintf.o)
                              misc.o (sprintf)
c:/program files (x86)/codesourcery/sourcery_codebench_lite_for_arm_eabi/bin/../lib/gcc/arm-none-eabi/4.6.1/../../../../arm-none-eabi/lib\libc.a(lib_a-stdio.o)
                              c:/program files (x86)/codesourcery/sourcery_codebench_lite_for_arm_eabi/bin/../lib/gcc/arm-none-eabi/4.6.1/../../../../arm-none-eabi/lib\libc.a(lib_a-findfp.o) (__sread)
c:/program files (x86)/codesourcery/sourcery_codebench_lite_for_arm_eabi/bin/../lib/gcc/arm-none-eabi/4.6.1/../../../../arm-none-eabi/lib\libc.a(lib_a-svfprintf.o)
                              c:/program files (x86)/codesourcery/sourcery_codebench_lite_for_arm_eabi/bin/../lib/gcc/arm-none-eabi/4.6.1/../../../../arm-none-eabi/lib\libc.a(lib_a-sprintf.o) (_svfprintf_r)
c:/program files (x86)/codesourcery/sourcery_codebench_lite_for_arm_eabi/bin/../lib/gcc/arm-none-eabi/4.6.1/../../../../arm-none-eabi/lib\libc.a(lib_a-vsnprintf.o)
                              uart.o (vsnprintf)
c:/program files (x86)/codesourcery/sourcery_codebench_lite_for_arm_eabi/bin/../lib/gcc/arm-none-eabi/4.6.1/../../../../arm-none-eabi/lib\libc.a(lib_a-writer.o)
                              c:/program files (x86)/codesourcery/sourcery_codebench_lite_for_arm_eabi/bin/../lib/gcc/arm-none-eabi/4.6.1/../../../../arm-none-eabi/lib\libc.a(lib_a-stdio.o) (_write_r)
c:/program files (x86)/codesourcery/sourcery_codebench_lite_for_arm_eabi/bin/../lib/gcc/arm-none-eabi/4.6.1/../../../../arm-none-eabi/lib\libc.a(lib_a-closer.o)
                              c:/program files (x86)/codesourcery/sourcery_codebench_lite_for_arm_eabi/bin/../lib/gcc/arm-none-eabi/4.6.1/../../../../arm-none-eabi/lib\libc.a(lib_a-stdio.o) (_close_r)
c:/program files (x86)/codesourcery/sourcery_codebench_lite_for_arm_eabi/bin/../lib/gcc/arm-none-eabi/4.6.1/../../../../arm-none-eabi/lib\libc.a(lib_a-dtoa.o)
                              c:/program files (x86)/codesourcery/sourcery_codebench_lite_for_arm_eabi/bin/../lib/gcc/arm-none-eabi/4.6.1/../../../../arm-none-eabi/lib\libc.a(lib_a-svfprintf.o) (_dtoa_r)
c:/program files (x86)/codesourcery/sourcery_codebench_lite_for_arm_eabi/bin/../lib/gcc/arm-none-eabi/4.6.1/../../../../arm-none-eabi/lib\libc.a(lib_a-fclose.o)
                              c:/program files (x86)/codesourcery/sourcery_codebench_lite_for_arm_eabi/bin/../lib/gcc/arm-none-eabi/4.6.1/../../../../arm-none-eabi/lib\libc.a(lib_a-findfp.o) (fclose)
c:/program files (x86)/codesourcery/sourcery_codebench_lite_for_arm_eabi/bin/../lib/gcc/arm-none-eabi/4.6.1/../../../../arm-none-eabi/lib\libc.a(lib_a-locale.o)
                              c:/program files (x86)/codesourcery/sourcery_codebench_lite_for_arm_eabi/bin/../lib/gcc/arm-none-eabi/4.6.1/../../../../arm-none-eabi/lib\libc.a(lib_a-svfprintf.o) (_localeconv_r)
c:/program files (x86)/codesourcery/sourcery_codebench_lite_for_arm_eabi/bin/../lib/gcc/arm-none-eabi/4.6.1/../../../../arm-none-eabi/lib\libc.a(lib_a-lseekr.o)
                              c:/program files (x86)/codesourcery/sourcery_codebench_lite_for_arm_eabi/bin/../lib/gcc/arm-none-eabi/4.6.1/../../../../arm-none-eabi/lib\libc.a(lib_a-stdio.o) (_lseek_r)
c:/program files (x86)/codesourcery/sourcery_codebench_lite_for_arm_eabi/bin/../lib/gcc/arm-none-eabi/4.6.1/../../../../arm-none-eabi/lib\libc.a(lib_a-memchr.o)
                              c:/program files (x86)/codesourcery/sourcery_codebench_lite_for_arm_eabi/bin/../lib/gcc/arm-none-eabi/4.6.1/../../../../arm-none-eabi/lib\libc.a(lib_a-svfprintf.o) (memchr)
c:/program files (x86)/codesourcery/sourcery_codebench_lite_for_arm_eabi/bin/../lib/gcc/arm-none-eabi/4.6.1/../../../../arm-none-eabi/lib\libc.a(lib_a-memcpy.o)
                              c:/program files (x86)/codesourcery/sourcery_codebench_lite_for_arm_eabi/bin/../lib/gcc/arm-none-eabi/4.6.1/../../../../arm-none-eabi/lib\libc.a(lib_a-dtoa.o) (memcpy)
c:/program files (x86)/codesourcery/sourcery_codebench_lite_for_arm_eabi/bin/../lib/gcc/arm-none-eabi/4.6.1/../../../../arm-none-eabi/lib\libc.a(lib_a-mprec.o)
                              c:/program files (x86)/codesourcery/sourcery_codebench_lite_for_arm_eabi/bin/../lib/gcc/arm-none-eabi/4.6.1/../../../../arm-none-eabi/lib\libc.a(lib_a-dtoa.o) (_Balloc)
c:/program files (x86)/codesourcery/sourcery_codebench_lite_for_arm_eabi/bin/../lib/gcc/arm-none-eabi/4.6.1/../../../../arm-none-eabi/lib\libc.a(lib_a-readr.o)
                              c:/program files (x86)/codesourcery/sourcery_codebench_lite_for_arm_eabi/bin/../lib/gcc/arm-none-eabi/4.6.1/../../../../arm-none-eabi/lib\libc.a(lib_a-stdio.o) (_read_r)
c:/program files (x86)/codesourcery/sourcery_codebench_lite_for_arm_eabi/bin/../lib/gcc/arm-none-eabi/4.6.1/../../../../arm-none-eabi/lib\libc.a(lib_a-reent.o)
                              c:/program files (x86)/codesourcery/sourcery_codebench_lite_for_arm_eabi/bin/../lib/gcc/arm-none-eabi/4.6.1/../../../../arm-none-eabi/lib\libc.a(lib_a-sbrkr.o) (errno)
c:/program files (x86)/codesourcery/sourcery_codebench_lite_for_arm_eabi/bin/../lib/gcc/arm-none-eabi/4.6.1/../../../../arm-none-eabi/lib\libc.a(lib_a-s_fpclassify.o)
                              c:/program files (x86)/codesourcery/sourcery_codebench_lite_for_arm_eabi/bin/../lib/gcc/arm-none-eabi/4.6.1/../../../../arm-none-eabi/lib\libc.a(lib_a-svfprintf.o) (__fpclassifyd)
c:/program files (x86)/codesourcery/sourcery_codebench_lite_for_arm_eabi/bin/../lib/gcc/arm-none-eabi/4.6.1/../../../../arm-none-eabi/lib\libc.a(lib_a-strcmp.o)
                              c:/program files (x86)/codesourcery/sourcery_codebench_lite_for_arm_eabi/bin/../lib/gcc/arm-none-eabi/4.6.1/../../../../arm-none-eabi/lib\libc.a(lib_a-locale.o) (strcmp)
c:/program files (x86)/codesourcery/sourcery_codebench_lite_for_arm_eabi/bin/../lib/gcc/arm-none-eabi/4.6.1/../../../../arm-none-eabi/lib\libc.a(lib_a-strlen.o)
                              c:/program files (x86)/codesourcery/sourcery_codebench_lite_for_arm_eabi/bin/../lib/gcc/arm-none-eabi/4.6.1/../../../../arm-none-eabi/lib\libc.a(lib_a-svfprintf.o) (strlen)
c:/program files (x86)/codesourcery/sourcery_codebench_lite_for_arm_eabi/bin/../lib/gcc/arm-none-eabi/4.6.1/../../../../arm-none-eabi/lib\libc.a(lib_a-svfiprintf.o)
                              c:/program files (x86)/codesourcery/sourcery_codebench_lite_for_arm_eabi/bin/../lib/gcc/arm-none-eabi/4.6.1/../../../../arm-none-eabi/lib\libc.a(lib_a-svfprintf.o) (__ssprint_r)
c:/program files (x86)/codesourcery/sourcery_codebench_lite_for_arm_eabi/bin/../lib/gcc/arm-none-eabi/4.6.1/../../../../arm-none-eabi/lib\libc.a(lib_a-callocr.o)
                              c:/program files (x86)/codesourcery/sourcery_codebench_lite_for_arm_eabi/bin/../lib/gcc/arm-none-eabi/4.6.1/../../../../arm-none-eabi/lib\libc.a(lib_a-mprec.o) (_calloc_r)
c:/program files (x86)/codesourcery/sourcery_codebench_lite_for_arm_eabi/bin/../lib/gcc/arm-none-eabi/4.6.1/../../../../arm-none-eabi/lib\libc.a(lib_a-memmove.o)
                              c:/program files (x86)/codesourcery/sourcery_codebench_lite_for_arm_eabi/bin/../lib/gcc/arm-none-eabi/4.6.1/../../../../arm-none-eabi/lib\libc.a(lib_a-svfiprintf.o) (memmove)
c:/program files (x86)/codesourcery/sourcery_codebench_lite_for_arm_eabi/bin/../lib/gcc/arm-none-eabi/4.6.1/../../../../arm-none-eabi/lib\libc.a(lib_a-reallocr.o)
                              c:/program files (x86)/codesourcery/sourcery_codebench_lite_for_arm_eabi/bin/../lib/gcc/arm-none-eabi/4.6.1/../../../../arm-none-eabi/lib\libc.a(lib_a-svfiprintf.o) (_realloc_r)
c:/program files (x86)/codesourcery/sourcery_codebench_lite_for_arm_eabi/bin/../lib/gcc/arm-none-eabi/4.6.1\libgcc.a(_arm_addsubdf3.o)
                              c:/program files (x86)/codesourcery/sourcery_codebench_lite_for_arm_eabi/bin/../lib/gcc/arm-none-eabi/4.6.1/../../../../arm-none-eabi/lib\libc.a(lib_a-dtoa.o) (__aeabi_dsub)
c:/program files (x86)/codesourcery/sourcery_codebench_lite_for_arm_eabi/bin/../lib/gcc/arm-none-eabi/4.6.1\libgcc.a(_arm_muldivdf3.o)
                              c:/program files (x86)/codesourcery/sourcery_codebench_lite_for_arm_eabi/bin/../lib/gcc/arm-none-eabi/4.6.1/../../../../arm-none-eabi/lib\libc.a(lib_a-dtoa.o) (__aeabi_dmul)
c:/program files (x86)/codesourcery/sourcery_codebench_lite_for_arm_eabi/bin/../lib/gcc/arm-none-eabi/4.6.1\libgcc.a(_arm_cmpdf2.o)
                              c:/program files (x86)/codesourcery/sourcery_codebench_lite_for_arm_eabi/bin/../lib/gcc/arm-none-eabi/4.6.1/../../../../arm-none-eabi/lib\libc.a(lib_a-svfprintf.o) (__aeabi_dcmpeq)
c:/program files (x86)/codesourcery/sourcery_codebench_lite_for_arm_eabi/bin/../lib/gcc/arm-none-eabi/4.6.1\libgcc.a(_arm_fixdfsi.o)
                              c:/program files (x86)/codesourcery/sourcery_codebench_lite_for_arm_eabi/bin/../lib/gcc/arm-none-eabi/4.6.1/../../../../arm-none-eabi/lib\libc.a(lib_a-dtoa.o) (__aeabi_d2iz)

Allocating common symbols
Common symbol       size              file

g_barrier2          0x4               misc.o
g_merge_buffer_lsn  0x800             ftl.o
errno               0x4               c:/program files (x86)/codesourcery/sourcery_codebench_lite_for_arm_eabi/bin/../lib/gcc/arm-none-eabi/4.6.1/../../../../arm-none-eabi/lib\libc.a(lib_a-reent.o)
g_sata_context      0x1c              sata_main.o
smt_dram_bit        0x80              ftl.o
g_sdram_ecc_fail_count
                    0x4               misc.o
g_target_sect       0x20              ftl.o
smt_dram_map        0x80              ftl.o
g_smt_target        0x4               ftl.o
g_ftl_read_buf_id   0x4               ftl.o
smt_bit_map         0x80              ftl.o
g_free_start        0x20              ftl.o
g_sata_action_flags
                    0x4               sata_main.o
g_ftl_write_buf_id  0x4               ftl.o
g_bad_list          0x400             ftl.o
g_temp_mem          0x200             mem_util.o
g_timer_interrupt_count
                    0x4               misc.o
g_sdram_ecc_count   0x4               misc.o
g_smt_victim        0x4               ftl.o
smt_piece_map       0x1000            ftl.o
__HEAP_START        0x800             misc.o
g_target_bank       0x4               ftl.o
g_sata_ncq          0x404             sata_main.o

Memory Configuration

Name             Origin             Length             Attributes
*default*        0x00000000         0xffffffff

Linker script and memory map

LOAD ftl.o
LOAD sata_identify.o
LOAD sata_cmd.o
LOAD sata_isr.o
LOAD sata_main.o
LOAD sata_table.o
LOAD initialize.o
LOAD mem_util.o
LOAD flash.o
LOAD flash_wrapper.o
LOAD misc.o
LOAD uart.o
LOAD init.o
LOAD c:/program files (x86)/codesourcery/sourcery_codebench_lite_for_arm_eabi/bin/../lib/gcc/arm-none-eabi/4.6.1\libgcc.a
START GROUP
LOAD c:/program files (x86)/codesourcery/sourcery_codebench_lite_for_arm_eabi/bin/../lib/gcc/arm-none-eabi/4.6.1\libgcc.a
LOAD c:/program files (x86)/codesourcery/sourcery_codebench_lite_for_arm_eabi/bin/../lib/gcc/arm-none-eabi/4.6.1/../../../../arm-none-eabi/lib\libc.a
END GROUP
                0x00000000                . = 0x0

.text           0x00000000     0xf288
                0x00000000                entry_point = .
 init.o(INIT)
 INIT           0x00000000       0xc8 init.o
                0x00000044                disable_irq
                0x00000060                enable_irq
                0x00000070                disable_fiq
                0x0000008c                enable_fiq
                0x0000009c                disable_interrupt
                0x000000ac                enable_interrupt
 *(.text)
 .text          0x000000c8     0x1d1c ftl.o
                0x000007cc                ftl_read_sector
                0x000008e0                ftl_read
                0x000009cc                ftl_write_sector
                0x00000b90                ftl_write
                0x00000cc0                flush_merge_buffer
                0x00000dd4                ftl_flush
                0x000011a8                ftl_open
                0x00001850                ftl_isr
                0x00001944                ftl_por_test
 .text          0x00001de4      0x2d0 sata_identify.o
                0x00001f68                ata_identify_device
 .text          0x000020b4      0x544 sata_cmd.o
                0x000020b4                ata_check_power_mode
                0x00002118                ata_read_native_max_address
                0x000021dc                send_status_to_host
                0x0000225c                ata_not_supported
                0x00002264                ata_recalibrate
                0x0000226c                ata_initialize_device_parameters
                0x000022dc                ata_nop
                0x000022e4                ata_sleep
                0x000022ec                ata_idle_immediate
                0x00002300                ata_idle
                0x00002314                ata_standby_immediate
                0x00002328                ata_standby
                0x0000233c                ata_set_multiple_mode
                0x00002344                ata_seek
                0x00002364                ata_set_features
                0x0000242c                ata_read_verify_sectors
                0x00002434                ata_flush_cache
                0x00002448                ata_srst
                0x000024bc                ata_execute_drive_diagnostics
                0x000024c8                pio_sector_transfer
                0x000025d8                ata_write_buffer
                0x000025e8                ata_read_buffer
 .text          0x000025f8      0x560 sata_isr.o
                0x000025f8                fiq_handler
 .text          0x00002b58      0x300 sata_main.o
                0x00002b58                Main
                0x00002c98                sata_reset
                0x00002df8                delay
 .text          0x00002e58        0x0 sata_table.o
 .text          0x00002e58      0x48c initialize.o
                0x00002e58                init_jasmine
 .text          0x000032e4      0xca4 mem_util.o
                0x000032e4                _mem_copy
                0x000033e8                _mem_bmp_find_sram
                0x000034c0                _mem_bmp_find_dram
                0x00003598                _mem_set_sram
                0x00003650                _mem_set_dram
                0x00003708                _mem_search_min_max
                0x000037ac                _mem_search_equ
                0x00003864                _write_dram_32
                0x000038cc                _write_dram_16
                0x00003968                _write_dram_8
                0x00003a00                _set_bit_dram
                0x00003a98                _clr_bit_dram
                0x00003b30                _tst_bit_dram
                0x00003bac                _read_dram_8
                0x00003c24                _read_dram_16
                0x00003c9c                _read_dram_32
                0x00003d20                _mem_cmp_sram
                0x00003e10                _mem_cmp_dram
 .text          0x00003f88      0x498 flash.o
                0x00003f88                flash_issue_cmd
                0x00003fe4                flash_copy
                0x00004058                flash_modify_copy
                0x000040e4                flash_erase
                0x00004184                flash_finish
                0x00004198                flash_clear_irq
                0x000041d0                flash_reset
 .text          0x00004420      0xc58 flash_wrapper.o
                0x00004420                nand_page_read
                0x000044fc                nand_page_ptread
                0x000045dc                nand_page_read_to_host
                0x000046ec                nand_page_ptread_to_host
                0x00004800                nand_page_program
                0x000048dc                nand_page_ptprogram
                0x000049bc                nand_page_program_from_host
                0x00004ae0                nand_page_ptprogram_from_host
                0x00004c04                nand_page_copyback
                0x00004d38                nand_page_modified_copyback
                0x00004f24                nand_block_erase
                0x00004fcc                nand_block_erase_sync
 .text          0x00005078      0xaac misc.o
                0x00005078                led
                0x00005098                led_blink
                0x000050d0                swi_handler
                0x00005130                irq_handler
                0x000051f4                test_nand_blocks
                0x0000595c                start_interval_measurement
                0x000059f0                start_timer
                0x00005a84                ptimer_start
                0x00005a90                ptimer_stop_and_uart_print
                0x00005af8                _sbrk
 .text          0x00005b24      0x2d4 uart.o
                0x00005b24                uart_print
                0x00005b84                uart_print_32
                0x00005bb4                uart_print_hex
                0x00005d24                uart_printf
                0x00005d88                uart_init
 .text          0x00005df8        0x0 init.o
 .text          0x00005df8      0x148 c:/program files (x86)/codesourcery/sourcery_codebench_lite_for_arm_eabi/bin/../lib/gcc/arm-none-eabi/4.6.1\libgcc.a(_divsi3.o)
                0x00005df8                __divsi3
                0x00005df8                __aeabi_idiv
                0x00005f20                __aeabi_idivmod
 .text          0x00005f40        0x4 c:/program files (x86)/codesourcery/sourcery_codebench_lite_for_arm_eabi/bin/../lib/gcc/arm-none-eabi/4.6.1\libgcc.a(_dvmd_tls.o)
                0x00005f40                __aeabi_idiv0
                0x00005f40                __aeabi_ldiv0
 .text          0x00005f44       0x3c c:/program files (x86)/codesourcery/sourcery_codebench_lite_for_arm_eabi/bin/../lib/gcc/arm-none-eabi/4.6.1\libgcc.a(_aeabi_uldivmod.o)
                0x00005f44                __aeabi_uldivmod
 .text          0x00005f80       0x84 c:/program files (x86)/codesourcery/sourcery_codebench_lite_for_arm_eabi/bin/../lib/gcc/arm-none-eabi/4.6.1\libgcc.a(bpabi.o)
                0x00005f80                __gnu_ldivmod_helper
                0x00005fc4                __gnu_uldivmod_helper
 .text          0x00006004      0x4dc c:/program files (x86)/codesourcery/sourcery_codebench_lite_for_arm_eabi/bin/../lib/gcc/arm-none-eabi/4.6.1\libgcc.a(_divdi3.o)
                0x00006004                __divdi3
 .text          0x000064e0      0x488 c:/program files (x86)/codesourcery/sourcery_codebench_lite_for_arm_eabi/bin/../lib/gcc/arm-none-eabi/4.6.1\libgcc.a(_udivdi3.o)
                0x000064e0                __udivdi3
 .text          0x00006968      0x114 c:/program files (x86)/codesourcery/sourcery_codebench_lite_for_arm_eabi/bin/../lib/gcc/arm-none-eabi/4.6.1\libgcc.a(_udivsi3.o)
                0x00006968                __aeabi_uidiv
                0x00006968                __udivsi3
                0x00006a5c                __aeabi_uidivmod
 .text          0x00006a7c       0x48 c:/program files (x86)/codesourcery/sourcery_codebench_lite_for_arm_eabi/bin/../lib/gcc/arm-none-eabi/4.6.1\libgcc.a(_clzsi2.o)
                0x00006a7c                __clzsi2
 .text          0x00006ac4      0x288 c:/program files (x86)/codesourcery/sourcery_codebench_lite_for_arm_eabi/bin/../lib/gcc/arm-none-eabi/4.6.1/../../../../arm-none-eabi/lib\libc.a(lib_a-fflush.o)
                0x00006ac4                _fflush_r
                0x00006d0c                fflush
 .text          0x00006d4c      0x2e8 c:/program files (x86)/codesourcery/sourcery_codebench_lite_for_arm_eabi/bin/../lib/gcc/arm-none-eabi/4.6.1/../../../../arm-none-eabi/lib\libc.a(lib_a-findfp.o)
                0x00006d5c                _cleanup_r
                0x00006df0                __sfmoreglue
                0x00006e38                _cleanup
                0x00006e48                __sinit
                0x00006ec0                __sfp
                0x00006fdc                __sfp_lock_acquire
                0x00006fe0                __sfp_lock_release
                0x00006fe4                __sinit_lock_acquire
                0x00006fe8                __sinit_lock_release
                0x00006fec                __fp_lock_all
                0x00007010                __fp_unlock_all
 .text          0x00007034      0x360 c:/program files (x86)/codesourcery/sourcery_codebench_lite_for_arm_eabi/bin/../lib/gcc/arm-none-eabi/4.6.1/../../../../arm-none-eabi/lib\libc.a(lib_a-freer.o)
                0x00007034                _malloc_trim_r
                0x00007130                _free_r
 .text          0x00007394      0x10c c:/program files (x86)/codesourcery/sourcery_codebench_lite_for_arm_eabi/bin/../lib/gcc/arm-none-eabi/4.6.1/../../../../arm-none-eabi/lib\libc.a(lib_a-fwalk.o)
                0x00007394                _fwalk
                0x00007418                _fwalk_reent
 .text          0x000074a0        0x0 c:/program files (x86)/codesourcery/sourcery_codebench_lite_for_arm_eabi/bin/../lib/gcc/arm-none-eabi/4.6.1/../../../../arm-none-eabi/lib\libc.a(lib_a-impure.o)
 .text          0x000074a0      0x714 c:/program files (x86)/codesourcery/sourcery_codebench_lite_for_arm_eabi/bin/../lib/gcc/arm-none-eabi/4.6.1/../../../../arm-none-eabi/lib\libc.a(lib_a-mallocr.o)
                0x000074a0                _malloc_r
 .text          0x00007bb4      0x10c c:/program files (x86)/codesourcery/sourcery_codebench_lite_for_arm_eabi/bin/../lib/gcc/arm-none-eabi/4.6.1/../../../../arm-none-eabi/lib\libc.a(lib_a-memset.o)
                0x00007bb4                memset
 .text          0x00007cc0        0x8 c:/program files (x86)/codesourcery/sourcery_codebench_lite_for_arm_eabi/bin/../lib/gcc/arm-none-eabi/4.6.1/../../../../arm-none-eabi/lib\libc.a(lib_a-mlock.o)
                0x00007cc0                __malloc_lock
                0x00007cc4                __malloc_unlock
 .text          0x00007cc8       0x78 c:/program files (x86)/codesourcery/sourcery_codebench_lite_for_arm_eabi/bin/../lib/gcc/arm-none-eabi/4.6.1/../../../../arm-none-eabi/lib\libc.a(lib_a-rand.o)
                0x00007cc8                srand
                0x00007ce4                rand
 .text          0x00007d40       0x40 c:/program files (x86)/codesourcery/sourcery_codebench_lite_for_arm_eabi/bin/../lib/gcc/arm-none-eabi/4.6.1/../../../../arm-none-eabi/lib\libc.a(lib_a-sbrkr.o)
                0x00007d40                _sbrk_r
 .text          0x00007d80       0xdc c:/program files (x86)/codesourcery/sourcery_codebench_lite_for_arm_eabi/bin/../lib/gcc/arm-none-eabi/4.6.1/../../../../arm-none-eabi/lib\libc.a(lib_a-sprintf.o)
                0x00007d80                _sprintf_r
                0x00007de8                sprintf
 .text          0x00007e5c       0xdc c:/program files (x86)/codesourcery/sourcery_codebench_lite_for_arm_eabi/bin/../lib/gcc/arm-none-eabi/4.6.1/../../../../arm-none-eabi/lib\libc.a(lib_a-stdio.o)
                0x00007e5c                __sread
                0x00007e90                __seofread
                0x00007e98                __swrite
                0x00007ef0                __sseek
                0x00007f24                __sclose
 .text          0x00007f38     0x1f64 c:/program files (x86)/codesourcery/sourcery_codebench_lite_for_arm_eabi/bin/../lib/gcc/arm-none-eabi/4.6.1/../../../../arm-none-eabi/lib\libc.a(lib_a-svfprintf.o)
                0x00007f38                _svfprintf_r
 .text          0x00009e9c       0xc8 c:/program files (x86)/codesourcery/sourcery_codebench_lite_for_arm_eabi/bin/../lib/gcc/arm-none-eabi/4.6.1/../../../../arm-none-eabi/lib\libc.a(lib_a-vsnprintf.o)
                0x00009e9c                _vsnprintf_r
                0x00009f20                vsnprintf
 .text          0x00009f64       0x44 c:/program files (x86)/codesourcery/sourcery_codebench_lite_for_arm_eabi/bin/../lib/gcc/arm-none-eabi/4.6.1/../../../../arm-none-eabi/lib\libc.a(lib_a-writer.o)
                0x00009f64                _write_r
 .text          0x00009fa8       0x3c c:/program files (x86)/codesourcery/sourcery_codebench_lite_for_arm_eabi/bin/../lib/gcc/arm-none-eabi/4.6.1/../../../../arm-none-eabi/lib\libc.a(lib_a-closer.o)
                0x00009fa8                _close_r
 *fill*         0x00009fe4        0x4 00
 .text          0x00009fe8     0x1860 c:/program files (x86)/codesourcery/sourcery_codebench_lite_for_arm_eabi/bin/../lib/gcc/arm-none-eabi/4.6.1/../../../../arm-none-eabi/lib\libc.a(lib_a-dtoa.o)
                0x0000a1e0                _dtoa_r
 .text          0x0000b848      0x10c c:/program files (x86)/codesourcery/sourcery_codebench_lite_for_arm_eabi/bin/../lib/gcc/arm-none-eabi/4.6.1/../../../../arm-none-eabi/lib\libc.a(lib_a-fclose.o)
                0x0000b848                _fclose_r
                0x0000b940                fclose
 .text          0x0000b954       0xd0 c:/program files (x86)/codesourcery/sourcery_codebench_lite_for_arm_eabi/bin/../lib/gcc/arm-none-eabi/4.6.1/../../../../arm-none-eabi/lib\libc.a(lib_a-locale.o)
                0x0000b954                _setlocale_r
                0x0000b9c0                __locale_charset
                0x0000b9cc                __locale_mb_cur_max
                0x0000b9dc                __locale_msgcharset
                0x0000b9e8                __locale_cjk_lang
                0x0000b9f0                _localeconv_r
                0x0000b9fc                setlocale
                0x0000ba18                localeconv
 .text          0x0000ba24       0x44 c:/program files (x86)/codesourcery/sourcery_codebench_lite_for_arm_eabi/bin/../lib/gcc/arm-none-eabi/4.6.1/../../../../arm-none-eabi/lib\libc.a(lib_a-lseekr.o)
                0x0000ba24                _lseek_r
 .text          0x0000ba68       0xf8 c:/program files (x86)/codesourcery/sourcery_codebench_lite_for_arm_eabi/bin/../lib/gcc/arm-none-eabi/4.6.1/../../../../arm-none-eabi/lib\libc.a(lib_a-memchr.o)
                0x0000ba68                memchr
 .text          0x0000bb60      0x1b4 c:/program files (x86)/codesourcery/sourcery_codebench_lite_for_arm_eabi/bin/../lib/gcc/arm-none-eabi/4.6.1/../../../../arm-none-eabi/lib\libc.a(lib_a-memcpy.o)
                0x0000bb60                memcpy
 .text          0x0000bd14      0xd14 c:/program files (x86)/codesourcery/sourcery_codebench_lite_for_arm_eabi/bin/../lib/gcc/arm-none-eabi/4.6.1/../../../../arm-none-eabi/lib\libc.a(lib_a-mprec.o)
                0x0000bd14                _Balloc
                0x0000bd98                _Bfree
                0x0000bdb4                __multadd
                0x0000be90                __s2b
                0x0000bf78                __hi0bits
                0x0000bfc8                __lo0bits
                0x0000c058                __i2b
                0x0000c07c                __multiply
                0x0000c274                __pow5mult
                0x0000c368                __lshift
                0x0000c464                __mcmp
                0x0000c4c8                __mdiff
                0x0000c618                __ulp
                0x0000c674                __b2d
                0x0000c738                __d2b
                0x0000c848                __ratio
                0x0000c8cc                _mprec_log10
                0x0000c920                __copybits
                0x0000c994                __any_on
 .text          0x0000ca28       0x44 c:/program files (x86)/codesourcery/sourcery_codebench_lite_for_arm_eabi/bin/../lib/gcc/arm-none-eabi/4.6.1/../../../../arm-none-eabi/lib\libc.a(lib_a-readr.o)
                0x0000ca28                _read_r
 .text          0x0000ca6c      0x1a8 c:/program files (x86)/codesourcery/sourcery_codebench_lite_for_arm_eabi/bin/../lib/gcc/arm-none-eabi/4.6.1/../../../../arm-none-eabi/lib\libc.a(lib_a-reent.o)
                0x0000ca6c                cleanup_glue
                0x0000ca98                _reclaim_reent
                0x0000cba0                _wrapup_reent
 .text          0x0000cc14       0x84 c:/program files (x86)/codesourcery/sourcery_codebench_lite_for_arm_eabi/bin/../lib/gcc/arm-none-eabi/4.6.1/../../../../arm-none-eabi/lib\libc.a(lib_a-s_fpclassify.o)
                0x0000cc14                __fpclassifyd
 .text          0x0000cc98      0x230 c:/program files (x86)/codesourcery/sourcery_codebench_lite_for_arm_eabi/bin/../lib/gcc/arm-none-eabi/4.6.1/../../../../arm-none-eabi/lib\libc.a(lib_a-strcmp.o)
                0x0000cc98                strcmp
 .text          0x0000cec8       0x60 c:/program files (x86)/codesourcery/sourcery_codebench_lite_for_arm_eabi/bin/../lib/gcc/arm-none-eabi/4.6.1/../../../../arm-none-eabi/lib\libc.a(lib_a-strlen.o)
                0x0000cec8                strlen
 .text          0x0000cf28     0x11ec c:/program files (x86)/codesourcery/sourcery_codebench_lite_for_arm_eabi/bin/../lib/gcc/arm-none-eabi/4.6.1/../../../../arm-none-eabi/lib\libc.a(lib_a-svfiprintf.o)
                0x0000cf28                __ssprint_r
                0x0000d0b8                _svfiprintf_r
 .text          0x0000e114       0x90 c:/program files (x86)/codesourcery/sourcery_codebench_lite_for_arm_eabi/bin/../lib/gcc/arm-none-eabi/4.6.1/../../../../arm-none-eabi/lib\libc.a(lib_a-callocr.o)
                0x0000e114                _calloc_r
 .text          0x0000e1a4      0x130 c:/program files (x86)/codesourcery/sourcery_codebench_lite_for_arm_eabi/bin/../lib/gcc/arm-none-eabi/4.6.1/../../../../arm-none-eabi/lib\libc.a(lib_a-memmove.o)
                0x0000e1a4                memmove
 .text          0x0000e2d4      0x55c c:/program files (x86)/codesourcery/sourcery_codebench_lite_for_arm_eabi/bin/../lib/gcc/arm-none-eabi/4.6.1/../../../../arm-none-eabi/lib\libc.a(lib_a-reallocr.o)
                0x0000e2d4                _realloc_r
 .text          0x0000e830      0x41c c:/program files (x86)/codesourcery/sourcery_codebench_lite_for_arm_eabi/bin/../lib/gcc/arm-none-eabi/4.6.1\libgcc.a(_arm_addsubdf3.o)
                0x0000e830                __aeabi_drsub
                0x0000e838                __aeabi_dsub
                0x0000e838                __subdf3
                0x0000e83c                __aeabi_dadd
                0x0000e83c                __adddf3
                0x0000eb4c                __floatunsidf
                0x0000eb4c                __aeabi_ui2d
                0x0000eb70                __floatsidf
                0x0000eb70                __aeabi_i2d
                0x0000eb98                __aeabi_f2d
                0x0000eb98                __extendsfdf2
                0x0000ebd8                __floatundidf
                0x0000ebd8                __aeabi_ul2d
                0x0000ebec                __floatdidf
                0x0000ebec                __aeabi_l2d
 .text          0x0000ec4c      0x49c c:/program files (x86)/codesourcery/sourcery_codebench_lite_for_arm_eabi/bin/../lib/gcc/arm-none-eabi/4.6.1\libgcc.a(_arm_muldivdf3.o)
                0x0000ec4c                __aeabi_dmul
                0x0000ec4c                __muldf3
                0x0000eedc                __divdf3
                0x0000eedc                __aeabi_ddiv
 .text          0x0000f0e8      0x144 c:/program files (x86)/codesourcery/sourcery_codebench_lite_for_arm_eabi/bin/../lib/gcc/arm-none-eabi/4.6.1\libgcc.a(_arm_cmpdf2.o)
                0x0000f0e8                __gtdf2
                0x0000f0e8                __gedf2
                0x0000f0f0                __ltdf2
                0x0000f0f0                __ledf2
                0x0000f0f8                __nedf2
                0x0000f0f8                __eqdf2
                0x0000f0f8                __cmpdf2
                0x0000f180                __aeabi_cdrcmple
                0x0000f19c                __aeabi_cdcmpeq
                0x0000f19c                __aeabi_cdcmple
                0x0000f1b4                __aeabi_dcmpeq
                0x0000f1cc                __aeabi_dcmplt
                0x0000f1e4                __aeabi_dcmple
                0x0000f1fc                __aeabi_dcmpge
                0x0000f214                __aeabi_dcmpgt
 .text          0x0000f22c       0x5c c:/program files (x86)/codesourcery/sourcery_codebench_lite_for_arm_eabi/bin/../lib/gcc/arm-none-eabi/4.6.1\libgcc.a(_arm_fixdfsi.o)
                0x0000f22c                __aeabi_d2iz
                0x0000f22c                __fixdfsi

.glue_7         0x0000f288        0x0
 .glue_7        0x00000000        0x0 linker stubs

.glue_7t        0x0000f288        0x0
 .glue_7t       0x00000000        0x0 linker stubs

.vfp11_veneer   0x0000f288        0x0
 .vfp11_veneer  0x00000000        0x0 linker stubs

.v4_bx          0x0000f288        0x0
 .v4_bx         0x00000000        0x0 linker stubs

.iplt           0x0000f288        0x0
 .iplt          0x00000000        0x0 ftl.o

.rodata         0x0000f288      0x3a0
 *(.rodata)
 .rodata        0x0000f288      0x228 sata_table.o
                0x0000f288                ata_function_table
                0x0000f374                ata_command_code_table
                0x0000f3b0                ata_cmd_class_table
 .rodata        0x0000f4b0        0x8 flash.o
                0x0000f4b0                c_bank_map
 .rodata        0x0000f4b8        0x4 c:/program files (x86)/codesourcery/sourcery_codebench_lite_for_arm_eabi/bin/../lib/gcc/arm-none-eabi/4.6.1/../../../../arm-none-eabi/lib\libc.a(lib_a-impure.o)
                0x0000f4b8                _global_impure_ptr
 .rodata        0x0000f4bc       0x20 c:/program files (x86)/codesourcery/sourcery_codebench_lite_for_arm_eabi/bin/../lib/gcc/arm-none-eabi/4.6.1/../../../../arm-none-eabi/lib\libc.a(lib_a-svfprintf.o)
 *fill*         0x0000f4dc        0x4 00
 .rodata        0x0000f4e0      0x128 c:/program files (x86)/codesourcery/sourcery_codebench_lite_for_arm_eabi/bin/../lib/gcc/arm-none-eabi/4.6.1/../../../../arm-none-eabi/lib\libc.a(lib_a-mprec.o)
                0x0000f4f0                __mprec_tens
                0x0000f5b8                __mprec_tinytens
                0x0000f5e0                __mprec_bigtens
 .rodata        0x0000f608       0x20 c:/program files (x86)/codesourcery/sourcery_codebench_lite_for_arm_eabi/bin/../lib/gcc/arm-none-eabi/4.6.1/../../../../arm-none-eabi/lib\libc.a(lib_a-svfiprintf.o)

.rodata.str1.4  0x0000f628      0x1b0
 .rodata.str1.4
                0x0000f628       0x31 ftl.o
                                 0x34 (size before relaxing)
 *fill*         0x0000f659        0x3 00
 .rodata.str1.4
                0x0000f65c       0x29 sata_identify.o
                                 0x2c (size before relaxing)
 *fill*         0x0000f685        0x3 00
 .rodata.str1.4
                0x0000f688       0x13 initialize.o
                                 0x14 (size before relaxing)
 *fill*         0x0000f69b        0x1 00
 .rodata.str1.4
                0x0000f69c       0x19 mem_util.o
                                 0x3c (size before relaxing)
 *fill*         0x0000f6b5        0x3 00
 .rodata.str1.4
                0x0000f6b8       0x16 flash.o
                                 0x38 (size before relaxing)
 *fill*         0x0000f6ce        0x2 00
 .rodata.str1.4
                0x0000f6d0       0x1e flash_wrapper.o
                                 0x40 (size before relaxing)
 *fill*         0x0000f6ee        0x2 00
 .rodata.str1.4
                0x0000f6f0       0x6b misc.o
                                 0x8c (size before relaxing)
 *fill*         0x0000f75b        0x1 00
 .rodata.str1.4
                0x0000f75c       0x15 uart.o
                                 0x3c (size before relaxing)
 *fill*         0x0000f771        0x3 00
 .rodata.str1.4
                0x0000f774        0x2 c:/program files (x86)/codesourcery/sourcery_codebench_lite_for_arm_eabi/bin/../lib/gcc/arm-none-eabi/4.6.1/../../../../arm-none-eabi/lib\libc.a(lib_a-impure.o)
                                  0x4 (size before relaxing)
 *fill*         0x0000f776        0x2 00
 .rodata.str1.4
                0x0000f778       0x42 c:/program files (x86)/codesourcery/sourcery_codebench_lite_for_arm_eabi/bin/../lib/gcc/arm-none-eabi/4.6.1/../../../../arm-none-eabi/lib\libc.a(lib_a-svfprintf.o)
                                 0x44 (size before relaxing)
 *fill*         0x0000f7ba        0x2 00
 .rodata.str1.4
                0x0000f7bc       0x10 c:/program files (x86)/codesourcery/sourcery_codebench_lite_for_arm_eabi/bin/../lib/gcc/arm-none-eabi/4.6.1/../../../../arm-none-eabi/lib\libc.a(lib_a-dtoa.o)
                                 0x14 (size before relaxing)
 .rodata.str1.4
                0x0000f7cc        0xc c:/program files (x86)/codesourcery/sourcery_codebench_lite_for_arm_eabi/bin/../lib/gcc/arm-none-eabi/4.6.1/../../../../arm-none-eabi/lib\libc.a(lib_a-locale.o)
                                 0x14 (size before relaxing)
 .rodata.str1.4
                0x00000000       0x30 c:/program files (x86)/codesourcery/sourcery_codebench_lite_for_arm_eabi/bin/../lib/gcc/arm-none-eabi/4.6.1/../../../../arm-none-eabi/lib\libc.a(lib_a-svfiprintf.o)

.ARM.extab      0x0000f7d8        0x0
 .ARM.extab     0x0000f7d8        0x0 c:/program files (x86)/codesourcery/sourcery_codebench_lite_for_arm_eabi/bin/../lib/gcc/arm-none-eabi/4.6.1\libgcc.a(_divdi3.o)
 .ARM.extab     0x0000f7d8        0x0 c:/program files (x86)/codesourcery/sourcery_codebench_lite_for_arm_eabi/bin/../lib/gcc/arm-none-eabi/4.6.1\libgcc.a(_udivdi3.o)

.ARM.exidx      0x0000f7d8        0x8
 .ARM.exidx     0x0000f7d8        0x8 c:/program files (x86)/codesourcery/sourcery_codebench_lite_for_arm_eabi/bin/../lib/gcc/arm-none-eabi/4.6.1\libgcc.a(_divdi3.o)
 .ARM.exidx     0x0000f7e0        0x0 c:/program files (x86)/codesourcery/sourcery_codebench_lite_for_arm_eabi/bin/../lib/gcc/arm-none-eabi/4.6.1\libgcc.a(_udivdi3.o)
                                  0x8 (size before relaxing)

.rel.dyn        0x0000f7e0        0x0
 .rel.iplt      0x00000000        0x0 ftl.o

.data           0x0000f7e0      0xafc
 *(.data)
 .data          0x0000f7e0       0x1c ftl.o
                0x0000f7e0                g_bytes_per_vp
                0x0000f7e4                g_bytes_per_phyp
                0x0000f7e8                g_smt_piece_size
                0x0000f7ec                g_smt_size
                0x0000f7f0                g_debug_smt_inc_size
                0x0000f7f4                g_debug_smt_limit
                0x0000f7f8                g_debug_pages
 .data          0x0000f7fc      0x200 sata_identify.o
                0x0000f7fc                ht_identify_data
 .data          0x0000f9fc        0x0 sata_cmd.o
 .data          0x0000f9fc        0x0 sata_isr.o
 .data          0x0000f9fc        0x0 sata_main.o
 .data          0x0000f9fc        0x0 sata_table.o
 .data          0x0000f9fc        0x0 initialize.o
 .data          0x0000f9fc        0x0 mem_util.o
 .data          0x0000f9fc       0x20 flash.o
                0x0000f9fc                c_bank_rmap
 .data          0x0000fa1c        0x0 flash_wrapper.o
 .data          0x0000fa1c        0x0 misc.o
 .data          0x0000fa1c        0x0 uart.o
 .data          0x0000fa1c        0x0 init.o
 .data          0x0000fa1c        0x0 c:/program files (x86)/codesourcery/sourcery_codebench_lite_for_arm_eabi/bin/../lib/gcc/arm-none-eabi/4.6.1\libgcc.a(_divsi3.o)
 .data          0x0000fa1c        0x0 c:/program files (x86)/codesourcery/sourcery_codebench_lite_for_arm_eabi/bin/../lib/gcc/arm-none-eabi/4.6.1\libgcc.a(_dvmd_tls.o)
 .data          0x0000fa1c        0x0 c:/program files (x86)/codesourcery/sourcery_codebench_lite_for_arm_eabi/bin/../lib/gcc/arm-none-eabi/4.6.1\libgcc.a(_aeabi_uldivmod.o)
 .data          0x0000fa1c        0x0 c:/program files (x86)/codesourcery/sourcery_codebench_lite_for_arm_eabi/bin/../lib/gcc/arm-none-eabi/4.6.1\libgcc.a(bpabi.o)
 .data          0x0000fa1c        0x0 c:/program files (x86)/codesourcery/sourcery_codebench_lite_for_arm_eabi/bin/../lib/gcc/arm-none-eabi/4.6.1\libgcc.a(_divdi3.o)
 .data          0x0000fa1c        0x0 c:/program files (x86)/codesourcery/sourcery_codebench_lite_for_arm_eabi/bin/../lib/gcc/arm-none-eabi/4.6.1\libgcc.a(_udivdi3.o)
 .data          0x0000fa1c        0x0 c:/program files (x86)/codesourcery/sourcery_codebench_lite_for_arm_eabi/bin/../lib/gcc/arm-none-eabi/4.6.1\libgcc.a(_udivsi3.o)
 .data          0x0000fa1c        0x0 c:/program files (x86)/codesourcery/sourcery_codebench_lite_for_arm_eabi/bin/../lib/gcc/arm-none-eabi/4.6.1\libgcc.a(_clzsi2.o)
 .data          0x0000fa1c        0x0 c:/program files (x86)/codesourcery/sourcery_codebench_lite_for_arm_eabi/bin/../lib/gcc/arm-none-eabi/4.6.1/../../../../arm-none-eabi/lib\libc.a(lib_a-fflush.o)
 .data          0x0000fa1c        0x0 c:/program files (x86)/codesourcery/sourcery_codebench_lite_for_arm_eabi/bin/../lib/gcc/arm-none-eabi/4.6.1/../../../../arm-none-eabi/lib\libc.a(lib_a-findfp.o)
 .data          0x0000fa1c        0x0 c:/program files (x86)/codesourcery/sourcery_codebench_lite_for_arm_eabi/bin/../lib/gcc/arm-none-eabi/4.6.1/../../../../arm-none-eabi/lib\libc.a(lib_a-freer.o)
 .data          0x0000fa1c        0x0 c:/program files (x86)/codesourcery/sourcery_codebench_lite_for_arm_eabi/bin/../lib/gcc/arm-none-eabi/4.6.1/../../../../arm-none-eabi/lib\libc.a(lib_a-fwalk.o)
 *fill*         0x0000fa1c        0x4 00
 .data          0x0000fa20      0x430 c:/program files (x86)/codesourcery/sourcery_codebench_lite_for_arm_eabi/bin/../lib/gcc/arm-none-eabi/4.6.1/../../../../arm-none-eabi/lib\libc.a(lib_a-impure.o)
                0x0000fa20                _impure_ptr
 .data          0x0000fe50      0x410 c:/program files (x86)/codesourcery/sourcery_codebench_lite_for_arm_eabi/bin/../lib/gcc/arm-none-eabi/4.6.1/../../../../arm-none-eabi/lib\libc.a(lib_a-mallocr.o)
                0x0000fe50                __malloc_av_
                0x00010258                __malloc_sbrk_base
                0x0001025c                __malloc_trim_threshold
 .data          0x00010260        0x0 c:/program files (x86)/codesourcery/sourcery_codebench_lite_for_arm_eabi/bin/../lib/gcc/arm-none-eabi/4.6.1/../../../../arm-none-eabi/lib\libc.a(lib_a-memset.o)
 .data          0x00010260        0x0 c:/program files (x86)/codesourcery/sourcery_codebench_lite_for_arm_eabi/bin/../lib/gcc/arm-none-eabi/4.6.1/../../../../arm-none-eabi/lib\libc.a(lib_a-mlock.o)
 .data          0x00010260        0x0 c:/program files (x86)/codesourcery/sourcery_codebench_lite_for_arm_eabi/bin/../lib/gcc/arm-none-eabi/4.6.1/../../../../arm-none-eabi/lib\libc.a(lib_a-rand.o)
 .data          0x00010260        0x0 c:/program files (x86)/codesourcery/sourcery_codebench_lite_for_arm_eabi/bin/../lib/gcc/arm-none-eabi/4.6.1/../../../../arm-none-eabi/lib\libc.a(lib_a-sbrkr.o)
 .data          0x00010260        0x0 c:/program files (x86)/codesourcery/sourcery_codebench_lite_for_arm_eabi/bin/../lib/gcc/arm-none-eabi/4.6.1/../../../../arm-none-eabi/lib\libc.a(lib_a-sprintf.o)
 .data          0x00010260        0x0 c:/program files (x86)/codesourcery/sourcery_codebench_lite_for_arm_eabi/bin/../lib/gcc/arm-none-eabi/4.6.1/../../../../arm-none-eabi/lib\libc.a(lib_a-stdio.o)
 .data          0x00010260        0x0 c:/program files (x86)/codesourcery/sourcery_codebench_lite_for_arm_eabi/bin/../lib/gcc/arm-none-eabi/4.6.1/../../../../arm-none-eabi/lib\libc.a(lib_a-svfprintf.o)
 .data          0x00010260        0x0 c:/program files (x86)/codesourcery/sourcery_codebench_lite_for_arm_eabi/bin/../lib/gcc/arm-none-eabi/4.6.1/../../../../arm-none-eabi/lib\libc.a(lib_a-vsnprintf.o)
 .data          0x00010260        0x0 c:/program files (x86)/codesourcery/sourcery_codebench_lite_for_arm_eabi/bin/../lib/gcc/arm-none-eabi/4.6.1/../../../../arm-none-eabi/lib\libc.a(lib_a-writer.o)
 .data          0x00010260        0x0 c:/program files (x86)/codesourcery/sourcery_codebench_lite_for_arm_eabi/bin/../lib/gcc/arm-none-eabi/4.6.1/../../../../arm-none-eabi/lib\libc.a(lib_a-closer.o)
 .data          0x00010260        0x0 c:/program files (x86)/codesourcery/sourcery_codebench_lite_for_arm_eabi/bin/../lib/gcc/arm-none-eabi/4.6.1/../../../../arm-none-eabi/lib\libc.a(lib_a-dtoa.o)
 .data          0x00010260        0x0 c:/program files (x86)/codesourcery/sourcery_codebench_lite_for_arm_eabi/bin/../lib/gcc/arm-none-eabi/4.6.1/../../../../arm-none-eabi/lib\libc.a(lib_a-fclose.o)
 .data          0x00010260       0x7c c:/program files (x86)/codesourcery/sourcery_codebench_lite_for_arm_eabi/bin/../lib/gcc/arm-none-eabi/4.6.1/../../../../arm-none-eabi/lib\libc.a(lib_a-locale.o)
                0x00010280                __mb_cur_max
 .data          0x000102dc        0x0 c:/program files (x86)/codesourcery/sourcery_codebench_lite_for_arm_eabi/bin/../lib/gcc/arm-none-eabi/4.6.1/../../../../arm-none-eabi/lib\libc.a(lib_a-lseekr.o)
 .data          0x000102dc        0x0 c:/program files (x86)/codesourcery/sourcery_codebench_lite_for_arm_eabi/bin/../lib/gcc/arm-none-eabi/4.6.1/../../../../arm-none-eabi/lib\libc.a(lib_a-memchr.o)
 .data          0x000102dc        0x0 c:/program files (x86)/codesourcery/sourcery_codebench_lite_for_arm_eabi/bin/../lib/gcc/arm-none-eabi/4.6.1/../../../../arm-none-eabi/lib\libc.a(lib_a-memcpy.o)
 .data          0x000102dc        0x0 c:/program files (x86)/codesourcery/sourcery_codebench_lite_for_arm_eabi/bin/../lib/gcc/arm-none-eabi/4.6.1/../../../../arm-none-eabi/lib\libc.a(lib_a-mprec.o)
 .data          0x000102dc        0x0 c:/program files (x86)/codesourcery/sourcery_codebench_lite_for_arm_eabi/bin/../lib/gcc/arm-none-eabi/4.6.1/../../../../arm-none-eabi/lib\libc.a(lib_a-readr.o)
 .data          0x000102dc        0x0 c:/program files (x86)/codesourcery/sourcery_codebench_lite_for_arm_eabi/bin/../lib/gcc/arm-none-eabi/4.6.1/../../../../arm-none-eabi/lib\libc.a(lib_a-reent.o)
 .data          0x000102dc        0x0 c:/program files (x86)/codesourcery/sourcery_codebench_lite_for_arm_eabi/bin/../lib/gcc/arm-none-eabi/4.6.1/../../../../arm-none-eabi/lib\libc.a(lib_a-s_fpclassify.o)
 .data          0x000102dc        0x0 c:/program files (x86)/codesourcery/sourcery_codebench_lite_for_arm_eabi/bin/../lib/gcc/arm-none-eabi/4.6.1/../../../../arm-none-eabi/lib\libc.a(lib_a-strcmp.o)
 .data          0x000102dc        0x0 c:/program files (x86)/codesourcery/sourcery_codebench_lite_for_arm_eabi/bin/../lib/gcc/arm-none-eabi/4.6.1/../../../../arm-none-eabi/lib\libc.a(lib_a-strlen.o)
 .data          0x000102dc        0x0 c:/program files (x86)/codesourcery/sourcery_codebench_lite_for_arm_eabi/bin/../lib/gcc/arm-none-eabi/4.6.1/../../../../arm-none-eabi/lib\libc.a(lib_a-svfiprintf.o)
 .data          0x000102dc        0x0 c:/program files (x86)/codesourcery/sourcery_codebench_lite_for_arm_eabi/bin/../lib/gcc/arm-none-eabi/4.6.1/../../../../arm-none-eabi/lib\libc.a(lib_a-callocr.o)
 .data          0x000102dc        0x0 c:/program files (x86)/codesourcery/sourcery_codebench_lite_for_arm_eabi/bin/../lib/gcc/arm-none-eabi/4.6.1/../../../../arm-none-eabi/lib\libc.a(lib_a-memmove.o)
 .data          0x000102dc        0x0 c:/program files (x86)/codesourcery/sourcery_codebench_lite_for_arm_eabi/bin/../lib/gcc/arm-none-eabi/4.6.1/../../../../arm-none-eabi/lib\libc.a(lib_a-reallocr.o)
 .data          0x000102dc        0x0 c:/program files (x86)/codesourcery/sourcery_codebench_lite_for_arm_eabi/bin/../lib/gcc/arm-none-eabi/4.6.1\libgcc.a(_arm_addsubdf3.o)
 .data          0x000102dc        0x0 c:/program files (x86)/codesourcery/sourcery_codebench_lite_for_arm_eabi/bin/../lib/gcc/arm-none-eabi/4.6.1\libgcc.a(_arm_muldivdf3.o)
 .data          0x000102dc        0x0 c:/program files (x86)/codesourcery/sourcery_codebench_lite_for_arm_eabi/bin/../lib/gcc/arm-none-eabi/4.6.1\libgcc.a(_arm_cmpdf2.o)
 .data          0x000102dc        0x0 c:/program files (x86)/codesourcery/sourcery_codebench_lite_for_arm_eabi/bin/../lib/gcc/arm-none-eabi/4.6.1\libgcc.a(_arm_fixdfsi.o)

.igot.plt       0x000102dc        0x0
 .igot.plt      0x00000000        0x0 ftl.o

.bss            0x000102dc     0x3120
 *(.bss)
 .bss           0x000102dc      0x48c ftl.o
 .bss           0x00010768        0x0 sata_identify.o
 .bss           0x00010768        0x0 sata_cmd.o
 .bss           0x00010768        0x0 sata_isr.o
 .bss           0x00010768        0x4 sata_main.o
 .bss           0x0001076c        0x0 sata_table.o
 .bss           0x0001076c        0x0 initialize.o
 .bss           0x0001076c        0x0 mem_util.o
 .bss           0x0001076c        0x0 flash.o
 .bss           0x0001076c        0x0 flash_wrapper.o
 .bss           0x0001076c       0x44 misc.o
 .bss           0x000107b0        0x0 uart.o
 .bss           0x000107b0        0x0 init.o
 .bss           0x000107b0        0x0 c:/program files (x86)/codesourcery/sourcery_codebench_lite_for_arm_eabi/bin/../lib/gcc/arm-none-eabi/4.6.1\libgcc.a(_divsi3.o)
 .bss           0x000107b0        0x0 c:/program files (x86)/codesourcery/sourcery_codebench_lite_for_arm_eabi/bin/../lib/gcc/arm-none-eabi/4.6.1\libgcc.a(_dvmd_tls.o)
 .bss           0x000107b0        0x0 c:/program files (x86)/codesourcery/sourcery_codebench_lite_for_arm_eabi/bin/../lib/gcc/arm-none-eabi/4.6.1\libgcc.a(_aeabi_uldivmod.o)
 .bss           0x000107b0        0x0 c:/program files (x86)/codesourcery/sourcery_codebench_lite_for_arm_eabi/bin/../lib/gcc/arm-none-eabi/4.6.1\libgcc.a(bpabi.o)
 .bss           0x000107b0        0x0 c:/program files (x86)/codesourcery/sourcery_codebench_lite_for_arm_eabi/bin/../lib/gcc/arm-none-eabi/4.6.1\libgcc.a(_divdi3.o)
 .bss           0x000107b0        0x0 c:/program files (x86)/codesourcery/sourcery_codebench_lite_for_arm_eabi/bin/../lib/gcc/arm-none-eabi/4.6.1\libgcc.a(_udivdi3.o)
 .bss           0x000107b0        0x0 c:/program files (x86)/codesourcery/sourcery_codebench_lite_for_arm_eabi/bin/../lib/gcc/arm-none-eabi/4.6.1\libgcc.a(_udivsi3.o)
 .bss           0x000107b0        0x0 c:/program files (x86)/codesourcery/sourcery_codebench_lite_for_arm_eabi/bin/../lib/gcc/arm-none-eabi/4.6.1\libgcc.a(_clzsi2.o)
 .bss           0x000107b0        0x0 c:/program files (x86)/codesourcery/sourcery_codebench_lite_for_arm_eabi/bin/../lib/gcc/arm-none-eabi/4.6.1/../../../../arm-none-eabi/lib\libc.a(lib_a-fflush.o)
 .bss           0x000107b0        0x0 c:/program files (x86)/codesourcery/sourcery_codebench_lite_for_arm_eabi/bin/../lib/gcc/arm-none-eabi/4.6.1/../../../../arm-none-eabi/lib\libc.a(lib_a-findfp.o)
 .bss           0x000107b0        0x0 c:/program files (x86)/codesourcery/sourcery_codebench_lite_for_arm_eabi/bin/../lib/gcc/arm-none-eabi/4.6.1/../../../../arm-none-eabi/lib\libc.a(lib_a-freer.o)
 .bss           0x000107b0        0x0 c:/program files (x86)/codesourcery/sourcery_codebench_lite_for_arm_eabi/bin/../lib/gcc/arm-none-eabi/4.6.1/../../../../arm-none-eabi/lib\libc.a(lib_a-fwalk.o)
 .bss           0x000107b0        0x0 c:/program files (x86)/codesourcery/sourcery_codebench_lite_for_arm_eabi/bin/../lib/gcc/arm-none-eabi/4.6.1/../../../../arm-none-eabi/lib\libc.a(lib_a-impure.o)
 .bss           0x000107b0       0x34 c:/program files (x86)/codesourcery/sourcery_codebench_lite_for_arm_eabi/bin/../lib/gcc/arm-none-eabi/4.6.1/../../../../arm-none-eabi/lib\libc.a(lib_a-mallocr.o)
                0x000107b0                __malloc_top_pad
                0x000107b4                __malloc_current_mallinfo
                0x000107dc                __malloc_max_sbrked_mem
                0x000107e0                __malloc_max_total_mem
 .bss           0x000107e4        0x0 c:/program files (x86)/codesourcery/sourcery_codebench_lite_for_arm_eabi/bin/../lib/gcc/arm-none-eabi/4.6.1/../../../../arm-none-eabi/lib\libc.a(lib_a-memset.o)
 .bss           0x000107e4        0x0 c:/program files (x86)/codesourcery/sourcery_codebench_lite_for_arm_eabi/bin/../lib/gcc/arm-none-eabi/4.6.1/../../../../arm-none-eabi/lib\libc.a(lib_a-mlock.o)
 .bss           0x000107e4        0x0 c:/program files (x86)/codesourcery/sourcery_codebench_lite_for_arm_eabi/bin/../lib/gcc/arm-none-eabi/4.6.1/../../../../arm-none-eabi/lib\libc.a(lib_a-rand.o)
 .bss           0x000107e4        0x0 c:/program files (x86)/codesourcery/sourcery_codebench_lite_for_arm_eabi/bin/../lib/gcc/arm-none-eabi/4.6.1/../../../../arm-none-eabi/lib\libc.a(lib_a-sbrkr.o)
 .bss           0x000107e4        0x0 c:/program files (x86)/codesourcery/sourcery_codebench_lite_for_arm_eabi/bin/../lib/gcc/arm-none-eabi/4.6.1/../../../../arm-none-eabi/lib\libc.a(lib_a-sprintf.o)
 .bss           0x000107e4        0x0 c:/program files (x86)/codesourcery/sourcery_codebench_lite_for_arm_eabi/bin/../lib/gcc/arm-none-eabi/4.6.1/../../../../arm-none-eabi/lib\libc.a(lib_a-stdio.o)
 .bss           0x000107e4        0x0 c:/program files (x86)/codesourcery/sourcery_codebench_lite_for_arm_eabi/bin/../lib/gcc/arm-none-eabi/4.6.1/../../../../arm-none-eabi/lib\libc.a(lib_a-svfprintf.o)
 .bss           0x000107e4        0x0 c:/program files (x86)/codesourcery/sourcery_codebench_lite_for_arm_eabi/bin/../lib/gcc/arm-none-eabi/4.6.1/../../../../arm-none-eabi/lib\libc.a(lib_a-vsnprintf.o)
 .bss           0x000107e4        0x0 c:/program files (x86)/codesourcery/sourcery_codebench_lite_for_arm_eabi/bin/../lib/gcc/arm-none-eabi/4.6.1/../../../../arm-none-eabi/lib\libc.a(lib_a-writer.o)
 .bss           0x000107e4        0x0 c:/program files (x86)/codesourcery/sourcery_codebench_lite_for_arm_eabi/bin/../lib/gcc/arm-none-eabi/4.6.1/../../../../arm-none-eabi/lib\libc.a(lib_a-closer.o)
 .bss           0x000107e4        0x0 c:/program files (x86)/codesourcery/sourcery_codebench_lite_for_arm_eabi/bin/../lib/gcc/arm-none-eabi/4.6.1/../../../../arm-none-eabi/lib\libc.a(lib_a-dtoa.o)
 .bss           0x000107e4        0x0 c:/program files (x86)/codesourcery/sourcery_codebench_lite_for_arm_eabi/bin/../lib/gcc/arm-none-eabi/4.6.1/../../../../arm-none-eabi/lib\libc.a(lib_a-fclose.o)
 .bss           0x000107e4        0xc c:/program files (x86)/codesourcery/sourcery_codebench_lite_for_arm_eabi/bin/../lib/gcc/arm-none-eabi/4.6.1/../../../../arm-none-eabi/lib\libc.a(lib_a-locale.o)
                0x000107e4                _PathLocale
                0x000107e8                __mlocale_changed
                0x000107ec                __nlocale_changed
 .bss           0x000107f0        0x0 c:/program files (x86)/codesourcery/sourcery_codebench_lite_for_arm_eabi/bin/../lib/gcc/arm-none-eabi/4.6.1/../../../../arm-none-eabi/lib\libc.a(lib_a-lseekr.o)
 .bss           0x000107f0        0x0 c:/program files (x86)/codesourcery/sourcery_codebench_lite_for_arm_eabi/bin/../lib/gcc/arm-none-eabi/4.6.1/../../../../arm-none-eabi/lib\libc.a(lib_a-memchr.o)
 .bss           0x000107f0        0x0 c:/program files (x86)/codesourcery/sourcery_codebench_lite_for_arm_eabi/bin/../lib/gcc/arm-none-eabi/4.6.1/../../../../arm-none-eabi/lib\libc.a(lib_a-memcpy.o)
 .bss           0x000107f0        0x0 c:/program files (x86)/codesourcery/sourcery_codebench_lite_for_arm_eabi/bin/../lib/gcc/arm-none-eabi/4.6.1/../../../../arm-none-eabi/lib\libc.a(lib_a-mprec.o)
 .bss           0x000107f0        0x0 c:/program files (x86)/codesourcery/sourcery_codebench_lite_for_arm_eabi/bin/../lib/gcc/arm-none-eabi/4.6.1/../../../../arm-none-eabi/lib\libc.a(lib_a-readr.o)
 .bss           0x000107f0        0x0 c:/program files (x86)/codesourcery/sourcery_codebench_lite_for_arm_eabi/bin/../lib/gcc/arm-none-eabi/4.6.1/../../../../arm-none-eabi/lib\libc.a(lib_a-reent.o)
 .bss           0x000107f0        0x0 c:/program files (x86)/codesourcery/sourcery_codebench_lite_for_arm_eabi/bin/../lib/gcc/arm-none-eabi/4.6.1/../../../../arm-none-eabi/lib\libc.a(lib_a-s_fpclassify.o)
 .bss           0x000107f0        0x0 c:/program files (x86)/codesourcery/sourcery_codebench_lite_for_arm_eabi/bin/../lib/gcc/arm-none-eabi/4.6.1/../../../../arm-none-eabi/lib\libc.a(lib_a-strcmp.o)
 .bss           0x000107f0        0x0 c:/program files (x86)/codesourcery/sourcery_codebench_lite_for_arm_eabi/bin/../lib/gcc/arm-none-eabi/4.6.1/../../../../arm-none-eabi/lib\libc.a(lib_a-strlen.o)
 .bss           0x000107f0        0x0 c:/program files (x86)/codesourcery/sourcery_codebench_lite_for_arm_eabi/bin/../lib/gcc/arm-none-eabi/4.6.1/../../../../arm-none-eabi/lib\libc.a(lib_a-svfiprintf.o)
 .bss           0x000107f0        0x0 c:/program files (x86)/codesourcery/sourcery_codebench_lite_for_arm_eabi/bin/../lib/gcc/arm-none-eabi/4.6.1/../../../../arm-none-eabi/lib\libc.a(lib_a-callocr.o)
 .bss           0x000107f0        0x0 c:/program files (x86)/codesourcery/sourcery_codebench_lite_for_arm_eabi/bin/../lib/gcc/arm-none-eabi/4.6.1/../../../../arm-none-eabi/lib\libc.a(lib_a-memmove.o)
 .bss           0x000107f0        0x0 c:/program files (x86)/codesourcery/sourcery_codebench_lite_for_arm_eabi/bin/../lib/gcc/arm-none-eabi/4.6.1/../../../../arm-none-eabi/lib\libc.a(lib_a-reallocr.o)
 .bss           0x000107f0        0x0 c:/program files (x86)/codesourcery/sourcery_codebench_lite_for_arm_eabi/bin/../lib/gcc/arm-none-eabi/4.6.1\libgcc.a(_arm_addsubdf3.o)
 .bss           0x000107f0        0x0 c:/program files (x86)/codesourcery/sourcery_codebench_lite_for_arm_eabi/bin/../lib/gcc/arm-none-eabi/4.6.1\libgcc.a(_arm_muldivdf3.o)
 .bss           0x000107f0        0x0 c:/program files (x86)/codesourcery/sourcery_codebench_lite_for_arm_eabi/bin/../lib/gcc/arm-none-eabi/4.6.1\libgcc.a(_arm_cmpdf2.o)
 .bss           0x000107f0        0x0 c:/program files (x86)/codesourcery/sourcery_codebench_lite_for_arm_eabi/bin/../lib/gcc/arm-none-eabi/4.6.1\libgcc.a(_arm_fixdfsi.o)
 COMMON         0x000107f0     0x1dd4 ftl.o
                0x000107f0                g_merge_buffer_lsn
                0x00010ff0                smt_dram_bit
                0x00011070                g_target_sect
                0x00011090                smt_dram_map
                0x00011110                g_smt_target
                0x00011114                g_ftl_read_buf_id
                0x00011118                smt_bit_map
                0x00011198                g_free_start
                0x000111b8                g_ftl_write_buf_id
                0x000111bc                g_bad_list
                0x000115bc                g_smt_victim
                0x000115c0                smt_piece_map
                0x000125c0                g_target_bank
 COMMON         0x000125c4      0x424 sata_main.o
                0x000125c4                g_sata_context
                0x000125e0                g_sata_action_flags
                0x000125e4                g_sata_ncq
 COMMON         0x000129e8      0x200 mem_util.o
                0x000129e8                g_temp_mem
 COMMON         0x00012be8      0x810 misc.o
                0x00012be8                g_barrier2
                0x00012bec                g_sdram_ecc_fail_count
                0x00012bf0                g_timer_interrupt_count
                0x00012bf4                g_sdram_ecc_count
                0x00012bf8                __HEAP_START
 COMMON         0x000133f8        0x4 c:/program files (x86)/codesourcery/sourcery_codebench_lite_for_arm_eabi/bin/../lib/gcc/arm-none-eabi/4.6.1/../../../../arm-none-eabi/lib\libc.a(lib_a-reent.o)
                0x000133f8                errno
                0x000102dc                Image$$ER_ZI$$ZI$$Base = LOADADDR (.bss)
                0x00003120                Image$$ER_ZI$$ZI$$Length = SIZEOF (.bss)
                0x000102dc                size_of_firmware_image = LOADADDR (.bss)
                0x00000000                _start = entry_point
OUTPUT(firmware.elf elf32-littlearm)

.debug_info     0x00000000     0x4ae5
 .debug_info    0x00000000      0xce6 ftl.o
 .debug_info    0x00000ce6      0x363 sata_identify.o
 .debug_info    0x00001049      0x95d sata_cmd.o
 .debug_info    0x000019a6      0x6b7 sata_isr.o
 .debug_info    0x0000205d      0x4f9 sata_main.o
 .debug_info    0x00002556       0xf8 sata_table.o
 .debug_info    0x0000264e      0x131 initialize.o
 .debug_info    0x0000277f      0x93e mem_util.o
 .debug_info    0x000030bd      0x2f6 flash.o
 .debug_info    0x000033b3      0x624 flash_wrapper.o
 .debug_info    0x000039d7      0x542 misc.o
 .debug_info    0x00003f19      0xbcc uart.o

.debug_abbrev   0x00000000     0x144a
 .debug_abbrev  0x00000000      0x2cb ftl.o
 .debug_abbrev  0x000002cb      0x19e sata_identify.o
 .debug_abbrev  0x00000469      0x187 sata_cmd.o
 .debug_abbrev  0x000005f0      0x1b1 sata_isr.o
 .debug_abbrev  0x000007a1      0x213 sata_main.o
 .debug_abbrev  0x000009b4       0x8b sata_table.o
 .debug_abbrev  0x00000a3f       0xc2 initialize.o
 .debug_abbrev  0x00000b01      0x1fe mem_util.o
 .debug_abbrev  0x00000cff      0x193 flash.o
 .debug_abbrev  0x00000e92      0x11f flash_wrapper.o
 .debug_abbrev  0x00000fb1      0x240 misc.o
 .debug_abbrev  0x000011f1      0x259 uart.o

.debug_loc      0x00000000     0x456d
 .debug_loc     0x00000000     0x1161 ftl.o
 .debug_loc     0x00001161      0x1a3 sata_identify.o
 .debug_loc     0x00001304      0x55b sata_cmd.o
 .debug_loc     0x0000185f      0x43a sata_isr.o
 .debug_loc     0x00001c99      0x11f sata_main.o
 .debug_loc     0x00001db8       0x94 initialize.o
 .debug_loc     0x00001e4c     0x104f mem_util.o
 .debug_loc     0x00002e9b      0x376 flash.o
 .debug_loc     0x00003211      0xba0 flash_wrapper.o
 .debug_loc     0x00003db1      0x536 misc.o
 .debug_loc     0x000042e7      0x286 uart.o

.debug_aranges  0x00000000      0x160
 .debug_aranges
                0x00000000       0x20 ftl.o
 .debug_aranges
                0x00000020       0x20 sata_identify.o
 .debug_aranges
                0x00000040       0x20 sata_cmd.o
 .debug_aranges
                0x00000060       0x20 sata_isr.o
 .debug_aranges
                0x00000080       0x20 sata_main.o
 .debug_aranges
                0x000000a0       0x20 initialize.o
 .debug_aranges
                0x000000c0       0x20 mem_util.o
 .debug_aranges
                0x000000e0       0x20 flash.o
 .debug_aranges
                0x00000100       0x20 flash_wrapper.o
 .debug_aranges
                0x00000120       0x20 misc.o
 .debug_aranges
                0x00000140       0x20 uart.o

.debug_ranges   0x00000000      0x5a8
 .debug_ranges  0x00000000      0x1c0 ftl.o
 .debug_ranges  0x000001c0       0x40 sata_identify.o
 .debug_ranges  0x00000200      0x118 sata_isr.o
 .debug_ranges  0x00000318       0xd8 sata_main.o
 .debug_ranges  0x000003f0       0x30 flash_wrapper.o
 .debug_ranges  0x00000420      0x148 misc.o
 .debug_ranges  0x00000568       0x40 uart.o

.debug_line     0x00000000     0x1baf
 .debug_line    0x00000000      0x6b5 ftl.o
 .debug_line    0x000006b5      0x136 sata_identify.o
 .debug_line    0x000007eb      0x1b6 sata_cmd.o
 .debug_line    0x000009a1      0x1c2 sata_isr.o
 .debug_line    0x00000b63      0x146 sata_main.o
 .debug_line    0x00000ca9       0x5b sata_table.o
 .debug_line    0x00000d04      0x1c5 initialize.o
 .debug_line    0x00000ec9      0x2d4 mem_util.o
 .debug_line    0x0000119d      0x187 flash.o
 .debug_line    0x00001324      0x38f flash_wrapper.o
 .debug_line    0x000016b3      0x2b6 misc.o
 .debug_line    0x00001969      0x246 uart.o

.debug_str      0x00000000     0x1b1c
 .debug_str     0x00000000      0x50a ftl.o
                                0x56b (size before relaxing)
 .debug_str     0x0000050a      0x1a7 sata_identify.o
                                0x270 (size before relaxing)
 .debug_str     0x000006b1      0x85f sata_cmd.o
                                0xa23 (size before relaxing)
 .debug_str     0x00000f10       0xf4 sata_isr.o
                                0x755 (size before relaxing)
 .debug_str     0x00001004       0xdf sata_main.o
                                0x2be (size before relaxing)
 .debug_str     0x000010e3       0x15 sata_table.o
                                0x102 (size before relaxing)
 .debug_str     0x000010f8       0x61 initialize.o
                                0x11c (size before relaxing)
 .debug_str     0x00001159      0x1cb mem_util.o
                                0x2a7 (size before relaxing)
 .debug_str     0x00001324       0xe2 flash.o
                                0x1aa (size before relaxing)
 .debug_str     0x00001406      0x178 flash_wrapper.o
                                0x293 (size before relaxing)
 .debug_str     0x0000157e      0x18c misc.o
                                0x2a2 (size before relaxing)
 .debug_str     0x0000170a      0x412 uart.o
                                0x556 (size before relaxing)

.comment        0x00000000       0x30
 .comment       0x00000000       0x30 ftl.o
                                 0x31 (size before relaxing)
 .comment       0x00000000       0x31 sata_identify.o
 .comment       0x00000000       0x31 sata_cmd.o
 .comment       0x00000000       0x31 sata_isr.o
 .comment       0x00000000       0x31 sata_main.o
 .comment       0x00000000       0x31 sata_table.o
 .comment       0x00000000       0x31 initialize.o
 .comment       0x00000000       0x31 mem_util.o
 .comment       0x00000000       0x31 flash.o
 .comment       0x00000000       0x31 flash_wrapper.o
 .comment       0x00000000       0x31 misc.o
 .comment       0x00000000       0x31 uart.o

.ARM.attributes
                0x00000000       0x32
 .ARM.attributes
                0x00000000       0x34 ftl.o
 .ARM.attributes
                0x00000034       0x34 sata_identify.o
 .ARM.attributes
                0x00000068       0x34 sata_cmd.o
 .ARM.attributes
                0x0000009c       0x34 sata_isr.o
 .ARM.attributes
                0x000000d0       0x34 sata_main.o
 .ARM.attributes
                0x00000104       0x34 sata_table.o
 .ARM.attributes
                0x00000138       0x34 initialize.o
 .ARM.attributes
                0x0000016c       0x34 mem_util.o
 .ARM.attributes
                0x000001a0       0x34 flash.o
 .ARM.attributes
                0x000001d4       0x34 flash_wrapper.o
 .ARM.attributes
                0x00000208       0x34 misc.o
 .ARM.attributes
                0x0000023c       0x34 uart.o
 .ARM.attributes
                0x00000270       0x24 init.o
 .ARM.attributes
                0x00000294       0x1a c:/program files (x86)/codesourcery/sourcery_codebench_lite_for_arm_eabi/bin/../lib/gcc/arm-none-eabi/4.6.1\libgcc.a(_divsi3.o)
 .ARM.attributes
                0x000002ae       0x18 c:/program files (x86)/codesourcery/sourcery_codebench_lite_for_arm_eabi/bin/../lib/gcc/arm-none-eabi/4.6.1\libgcc.a(_dvmd_tls.o)
 .ARM.attributes
                0x000002c6       0x1a c:/program files (x86)/codesourcery/sourcery_codebench_lite_for_arm_eabi/bin/../lib/gcc/arm-none-eabi/4.6.1\libgcc.a(_aeabi_uldivmod.o)
 .ARM.attributes
                0x000002e0       0x32 c:/program files (x86)/codesourcery/sourcery_codebench_lite_for_arm_eabi/bin/../lib/gcc/arm-none-eabi/4.6.1\libgcc.a(bpabi.o)
 .ARM.attributes
                0x00000312       0x32 c:/program files (x86)/codesourcery/sourcery_codebench_lite_for_arm_eabi/bin/../lib/gcc/arm-none-eabi/4.6.1\libgcc.a(_divdi3.o)
 .ARM.attributes
                0x00000344       0x32 c:/program files (x86)/codesourcery/sourcery_codebench_lite_for_arm_eabi/bin/../lib/gcc/arm-none-eabi/4.6.1\libgcc.a(_udivdi3.o)
 .ARM.attributes
                0x00000376       0x1a c:/program files (x86)/codesourcery/sourcery_codebench_lite_for_arm_eabi/bin/../lib/gcc/arm-none-eabi/4.6.1\libgcc.a(_udivsi3.o)
 .ARM.attributes
                0x00000390       0x1a c:/program files (x86)/codesourcery/sourcery_codebench_lite_for_arm_eabi/bin/../lib/gcc/arm-none-eabi/4.6.1\libgcc.a(_clzsi2.o)
 .ARM.attributes
                0x000003aa       0x32 c:/program files (x86)/codesourcery/sourcery_codebench_lite_for_arm_eabi/bin/../lib/gcc/arm-none-eabi/4.6.1/../../../../arm-none-eabi/lib\libc.a(lib_a-fflush.o)
 .ARM.attributes
                0x000003dc       0x32 c:/program files (x86)/codesourcery/sourcery_codebench_lite_for_arm_eabi/bin/../lib/gcc/arm-none-eabi/4.6.1/../../../../arm-none-eabi/lib\libc.a(lib_a-findfp.o)
 .ARM.attributes
                0x0000040e       0x32 c:/program files (x86)/codesourcery/sourcery_codebench_lite_for_arm_eabi/bin/../lib/gcc/arm-none-eabi/4.6.1/../../../../arm-none-eabi/lib\libc.a(lib_a-freer.o)
 .ARM.attributes
                0x00000440       0x32 c:/program files (x86)/codesourcery/sourcery_codebench_lite_for_arm_eabi/bin/../lib/gcc/arm-none-eabi/4.6.1/../../../../arm-none-eabi/lib\libc.a(lib_a-fwalk.o)
 .ARM.attributes
                0x00000472       0x32 c:/program files (x86)/codesourcery/sourcery_codebench_lite_for_arm_eabi/bin/../lib/gcc/arm-none-eabi/4.6.1/../../../../arm-none-eabi/lib\libc.a(lib_a-impure.o)
 .ARM.attributes
                0x000004a4       0x32 c:/program files (x86)/codesourcery/sourcery_codebench_lite_for_arm_eabi/bin/../lib/gcc/arm-none-eabi/4.6.1/../../../../arm-none-eabi/lib\libc.a(lib_a-mallocr.o)
 .ARM.attributes
                0x000004d6       0x32 c:/program files (x86)/codesourcery/sourcery_codebench_lite_for_arm_eabi/bin/../lib/gcc/arm-none-eabi/4.6.1/../../../../arm-none-eabi/lib\libc.a(lib_a-memset.o)
 .ARM.attributes
                0x00000508       0x32 c:/program files (x86)/codesourcery/sourcery_codebench_lite_for_arm_eabi/bin/../lib/gcc/arm-none-eabi/4.6.1/../../../../arm-none-eabi/lib\libc.a(lib_a-mlock.o)
 .ARM.attributes
                0x0000053a       0x32 c:/program files (x86)/codesourcery/sourcery_codebench_lite_for_arm_eabi/bin/../lib/gcc/arm-none-eabi/4.6.1/../../../../arm-none-eabi/lib\libc.a(lib_a-rand.o)
 .ARM.attributes
                0x0000056c       0x32 c:/program files (x86)/codesourcery/sourcery_codebench_lite_for_arm_eabi/bin/../lib/gcc/arm-none-eabi/4.6.1/../../../../arm-none-eabi/lib\libc.a(lib_a-sbrkr.o)
 .ARM.attributes
                0x0000059e       0x32 c:/program files (x86)/codesourcery/sourcery_codebench_lite_for_arm_eabi/bin/../lib/gcc/arm-none-eabi/4.6.1/../../../../arm-none-eabi/lib\libc.a(lib_a-sprintf.o)
 .ARM.attributes
                0x000005d0       0x32 c:/program files (x86)/codesourcery/sourcery_codebench_lite_for_arm_eabi/bin/../lib/gcc/arm-none-eabi/4.6.1/../../../../arm-none-eabi/lib\libc.a(lib_a-stdio.o)
 .ARM.attributes
                0x00000602       0x32 c:/program files (x86)/codesourcery/sourcery_codebench_lite_for_arm_eabi/bin/../lib/gcc/arm-none-eabi/4.6.1/../../../../arm-none-eabi/lib\libc.a(lib_a-svfprintf.o)
 .ARM.attributes
                0x00000634       0x32 c:/program files (x86)/codesourcery/sourcery_codebench_lite_for_arm_eabi/bin/../lib/gcc/arm-none-eabi/4.6.1/../../../../arm-none-eabi/lib\libc.a(lib_a-vsnprintf.o)
 .ARM.attributes
                0x00000666       0x32 c:/program files (x86)/codesourcery/sourcery_codebench_lite_for_arm_eabi/bin/../lib/gcc/arm-none-eabi/4.6.1/../../../../arm-none-eabi/lib\libc.a(lib_a-writer.o)
 .ARM.attributes
                0x00000698       0x32 c:/program files (x86)/codesourcery/sourcery_codebench_lite_for_arm_eabi/bin/../lib/gcc/arm-none-eabi/4.6.1/../../../../arm-none-eabi/lib\libc.a(lib_a-closer.o)
 .ARM.attributes
                0x000006ca       0x32 c:/program files (x86)/codesourcery/sourcery_codebench_lite_for_arm_eabi/bin/../lib/gcc/arm-none-eabi/4.6.1/../../../../arm-none-eabi/lib\libc.a(lib_a-dtoa.o)
 .ARM.attributes
                0x000006fc       0x32 c:/program files (x86)/codesourcery/sourcery_codebench_lite_for_arm_eabi/bin/../lib/gcc/arm-none-eabi/4.6.1/../../../../arm-none-eabi/lib\libc.a(lib_a-fclose.o)
 .ARM.attributes
                0x0000072e       0x32 c:/program files (x86)/codesourcery/sourcery_codebench_lite_for_arm_eabi/bin/../lib/gcc/arm-none-eabi/4.6.1/../../../../arm-none-eabi/lib\libc.a(lib_a-locale.o)
 .ARM.attributes
                0x00000760       0x32 c:/program files (x86)/codesourcery/sourcery_codebench_lite_for_arm_eabi/bin/../lib/gcc/arm-none-eabi/4.6.1/../../../../arm-none-eabi/lib\libc.a(lib_a-lseekr.o)
 .ARM.attributes
                0x00000792       0x32 c:/program files (x86)/codesourcery/sourcery_codebench_lite_for_arm_eabi/bin/../lib/gcc/arm-none-eabi/4.6.1/../../../../arm-none-eabi/lib\libc.a(lib_a-memchr.o)
 .ARM.attributes
                0x000007c4       0x32 c:/program files (x86)/codesourcery/sourcery_codebench_lite_for_arm_eabi/bin/../lib/gcc/arm-none-eabi/4.6.1/../../../../arm-none-eabi/lib\libc.a(lib_a-memcpy.o)
 .ARM.attributes
                0x000007f6       0x32 c:/program files (x86)/codesourcery/sourcery_codebench_lite_for_arm_eabi/bin/../lib/gcc/arm-none-eabi/4.6.1/../../../../arm-none-eabi/lib\libc.a(lib_a-mprec.o)
 .ARM.attributes
                0x00000828       0x32 c:/program files (x86)/codesourcery/sourcery_codebench_lite_for_arm_eabi/bin/../lib/gcc/arm-none-eabi/4.6.1/../../../../arm-none-eabi/lib\libc.a(lib_a-readr.o)
 .ARM.attributes
                0x0000085a       0x32 c:/program files (x86)/codesourcery/sourcery_codebench_lite_for_arm_eabi/bin/../lib/gcc/arm-none-eabi/4.6.1/../../../../arm-none-eabi/lib\libc.a(lib_a-reent.o)
 .ARM.attributes
                0x0000088c       0x32 c:/program files (x86)/codesourcery/sourcery_codebench_lite_for_arm_eabi/bin/../lib/gcc/arm-none-eabi/4.6.1/../../../../arm-none-eabi/lib\libc.a(lib_a-s_fpclassify.o)
 .ARM.attributes
                0x000008be       0x32 c:/program files (x86)/codesourcery/sourcery_codebench_lite_for_arm_eabi/bin/../lib/gcc/arm-none-eabi/4.6.1/../../../../arm-none-eabi/lib\libc.a(lib_a-strcmp.o)
 .ARM.attributes
                0x000008f0       0x32 c:/program files (x86)/codesourcery/sourcery_codebench_lite_for_arm_eabi/bin/../lib/gcc/arm-none-eabi/4.6.1/../../../../arm-none-eabi/lib\libc.a(lib_a-strlen.o)
 .ARM.attributes
                0x00000922       0x32 c:/program files (x86)/codesourcery/sourcery_codebench_lite_for_arm_eabi/bin/../lib/gcc/arm-none-eabi/4.6.1/../../../../arm-none-eabi/lib\libc.a(lib_a-svfiprintf.o)
 .ARM.attributes
                0x00000954       0x32 c:/program files (x86)/codesourcery/sourcery_codebench_lite_for_arm_eabi/bin/../lib/gcc/arm-none-eabi/4.6.1/../../../../arm-none-eabi/lib\libc.a(lib_a-callocr.o)
 .ARM.attributes
                0x00000986       0x32 c:/program files (x86)/codesourcery/sourcery_codebench_lite_for_arm_eabi/bin/../lib/gcc/arm-none-eabi/4.6.1/../../../../arm-none-eabi/lib\libc.a(lib_a-memmove.o)
 .ARM.attributes
                0x000009b8       0x32 c:/program files (x86)/codesourcery/sourcery_codebench_lite_for_arm_eabi/bin/../lib/gcc/arm-none-eabi/4.6.1/../../../../arm-none-eabi/lib\libc.a(lib_a-reallocr.o)
 .ARM.attributes
                0x000009ea       0x1a c:/program files (x86)/codesourcery/sourcery_codebench_lite_for_arm_eabi/bin/../lib/gcc/arm-none-eabi/4.6.1\libgcc.a(_arm_addsubdf3.o)
 .ARM.attributes
                0x00000a04       0x1a c:/program files (x86)/codesourcery/sourcery_codebench_lite_for_arm_eabi/bin/../lib/gcc/arm-none-eabi/4.6.1\libgcc.a(_arm_muldivdf3.o)
 .ARM.attributes
                0x00000a1e       0x1a c:/program files (x86)/codesourcery/sourcery_codebench_lite_for_arm_eabi/bin/../lib/gcc/arm-none-eabi/4.6.1\libgcc.a(_arm_cmpdf2.o)
 .ARM.attributes
                0x00000a38       0x1a c:/program files (x86)/codesourcery/sourcery_codebench_lite_for_arm_eabi/bin/../lib/gcc/arm-none-eabi/4.6.1\libgcc.a(_arm_fixdfsi.o)

.debug_frame    0x00000000     0x1644
 .debug_frame   0x00000000      0x244 ftl.o
 .debug_frame   0x00000244       0x48 sata_identify.o
 .debug_frame   0x0000028c      0x1b8 sata_cmd.o
 .debug_frame   0x00000444       0x38 sata_isr.o
 .debug_frame   0x0000047c       0x60 sata_main.o
 .debug_frame   0x000004dc       0x38 initialize.o
 .debug_frame   0x00000514      0x1d8 mem_util.o
 .debug_frame   0x000006ec       0xb0 flash.o
 .debug_frame   0x0000079c      0x170 flash_wrapper.o
 .debug_frame   0x0000090c      0x110 misc.o
 .debug_frame   0x00000a1c       0x88 uart.o
 .debug_frame   0x00000aa4       0x20 c:/program files (x86)/codesourcery/sourcery_codebench_lite_for_arm_eabi/bin/../lib/gcc/arm-none-eabi/4.6.1\libgcc.a(_divsi3.o)
 .debug_frame   0x00000ac4       0x58 c:/program files (x86)/codesourcery/sourcery_codebench_lite_for_arm_eabi/bin/../lib/gcc/arm-none-eabi/4.6.1\libgcc.a(bpabi.o)
 .debug_frame   0x00000b1c       0x38 c:/program files (x86)/codesourcery/sourcery_codebench_lite_for_arm_eabi/bin/../lib/gcc/arm-none-eabi/4.6.1\libgcc.a(_divdi3.o)
 .debug_frame   0x00000b54       0x38 c:/program files (x86)/codesourcery/sourcery_codebench_lite_for_arm_eabi/bin/../lib/gcc/arm-none-eabi/4.6.1\libgcc.a(_udivdi3.o)
 .debug_frame   0x00000b8c       0x20 c:/program files (x86)/codesourcery/sourcery_codebench_lite_for_arm_eabi/bin/../lib/gcc/arm-none-eabi/4.6.1\libgcc.a(_udivsi3.o)
 .debug_frame   0x00000bac       0x48 c:/program files (x86)/codesourcery/sourcery_codebench_lite_for_arm_eabi/bin/../lib/gcc/arm-none-eabi/4.6.1/../../../../arm-none-eabi/lib\libc.a(lib_a-fflush.o)
 .debug_frame   0x00000bf4      0x134 c:/program files (x86)/codesourcery/sourcery_codebench_lite_for_arm_eabi/bin/../lib/gcc/arm-none-eabi/4.6.1/../../../../arm-none-eabi/lib\libc.a(lib_a-findfp.o)
 .debug_frame   0x00000d28       0x50 c:/program files (x86)/codesourcery/sourcery_codebench_lite_for_arm_eabi/bin/../lib/gcc/arm-none-eabi/4.6.1/../../../../arm-none-eabi/lib\libc.a(lib_a-freer.o)
 .debug_frame   0x00000d78       0x54 c:/program files (x86)/codesourcery/sourcery_codebench_lite_for_arm_eabi/bin/../lib/gcc/arm-none-eabi/4.6.1/../../../../arm-none-eabi/lib\libc.a(lib_a-fwalk.o)
 .debug_frame   0x00000dcc       0x38 c:/program files (x86)/codesourcery/sourcery_codebench_lite_for_arm_eabi/bin/../lib/gcc/arm-none-eabi/4.6.1/../../../../arm-none-eabi/lib\libc.a(lib_a-mallocr.o)
 .debug_frame   0x00000e04       0x28 c:/program files (x86)/codesourcery/sourcery_codebench_lite_for_arm_eabi/bin/../lib/gcc/arm-none-eabi/4.6.1/../../../../arm-none-eabi/lib\libc.a(lib_a-memset.o)
 .debug_frame   0x00000e2c       0x30 c:/program files (x86)/codesourcery/sourcery_codebench_lite_for_arm_eabi/bin/../lib/gcc/arm-none-eabi/4.6.1/../../../../arm-none-eabi/lib\libc.a(lib_a-mlock.o)
 .debug_frame   0x00000e5c       0x38 c:/program files (x86)/codesourcery/sourcery_codebench_lite_for_arm_eabi/bin/../lib/gcc/arm-none-eabi/4.6.1/../../../../arm-none-eabi/lib\libc.a(lib_a-rand.o)
 .debug_frame   0x00000e94       0x2c c:/program files (x86)/codesourcery/sourcery_codebench_lite_for_arm_eabi/bin/../lib/gcc/arm-none-eabi/4.6.1/../../../../arm-none-eabi/lib\libc.a(lib_a-sbrkr.o)
 .debug_frame   0x00000ec0       0x5c c:/program files (x86)/codesourcery/sourcery_codebench_lite_for_arm_eabi/bin/../lib/gcc/arm-none-eabi/4.6.1/../../../../arm-none-eabi/lib\libc.a(lib_a-sprintf.o)
 .debug_frame   0x00000f1c       0x88 c:/program files (x86)/codesourcery/sourcery_codebench_lite_for_arm_eabi/bin/../lib/gcc/arm-none-eabi/4.6.1/../../../../arm-none-eabi/lib\libc.a(lib_a-stdio.o)
 .debug_frame   0x00000fa4       0x3c c:/program files (x86)/codesourcery/sourcery_codebench_lite_for_arm_eabi/bin/../lib/gcc/arm-none-eabi/4.6.1/../../../../arm-none-eabi/lib\libc.a(lib_a-svfprintf.o)
 .debug_frame   0x00000fe0       0x48 c:/program files (x86)/codesourcery/sourcery_codebench_lite_for_arm_eabi/bin/../lib/gcc/arm-none-eabi/4.6.1/../../../../arm-none-eabi/lib\libc.a(lib_a-vsnprintf.o)
 .debug_frame   0x00001028       0x2c c:/program files (x86)/codesourcery/sourcery_codebench_lite_for_arm_eabi/bin/../lib/gcc/arm-none-eabi/4.6.1/../../../../arm-none-eabi/lib\libc.a(lib_a-writer.o)
 .debug_frame   0x00001054       0x2c c:/program files (x86)/codesourcery/sourcery_codebench_lite_for_arm_eabi/bin/../lib/gcc/arm-none-eabi/4.6.1/../../../../arm-none-eabi/lib\libc.a(lib_a-closer.o)
 .debug_frame   0x00001080       0x64 c:/program files (x86)/codesourcery/sourcery_codebench_lite_for_arm_eabi/bin/../lib/gcc/arm-none-eabi/4.6.1/../../../../arm-none-eabi/lib\libc.a(lib_a-dtoa.o)
 .debug_frame   0x000010e4       0x3c c:/program files (x86)/codesourcery/sourcery_codebench_lite_for_arm_eabi/bin/../lib/gcc/arm-none-eabi/4.6.1/../../../../arm-none-eabi/lib\libc.a(lib_a-fclose.o)
 .debug_frame   0x00001120       0x98 c:/program files (x86)/codesourcery/sourcery_codebench_lite_for_arm_eabi/bin/../lib/gcc/arm-none-eabi/4.6.1/../../../../arm-none-eabi/lib\libc.a(lib_a-locale.o)
 .debug_frame   0x000011b8       0x2c c:/program files (x86)/codesourcery/sourcery_codebench_lite_for_arm_eabi/bin/../lib/gcc/arm-none-eabi/4.6.1/../../../../arm-none-eabi/lib\libc.a(lib_a-lseekr.o)
 .debug_frame   0x000011e4       0x2c c:/program files (x86)/codesourcery/sourcery_codebench_lite_for_arm_eabi/bin/../lib/gcc/arm-none-eabi/4.6.1/../../../../arm-none-eabi/lib\libc.a(lib_a-memchr.o)
 .debug_frame   0x00001210       0x2c c:/program files (x86)/codesourcery/sourcery_codebench_lite_for_arm_eabi/bin/../lib/gcc/arm-none-eabi/4.6.1/../../../../arm-none-eabi/lib\libc.a(lib_a-memcpy.o)
 .debug_frame   0x0000123c      0x214 c:/program files (x86)/codesourcery/sourcery_codebench_lite_for_arm_eabi/bin/../lib/gcc/arm-none-eabi/4.6.1/../../../../arm-none-eabi/lib\libc.a(lib_a-mprec.o)
 .debug_frame   0x00001450       0x2c c:/program files (x86)/codesourcery/sourcery_codebench_lite_for_arm_eabi/bin/../lib/gcc/arm-none-eabi/4.6.1/../../../../arm-none-eabi/lib\libc.a(lib_a-readr.o)
 .debug_frame   0x0000147c       0x68 c:/program files (x86)/codesourcery/sourcery_codebench_lite_for_arm_eabi/bin/../lib/gcc/arm-none-eabi/4.6.1/../../../../arm-none-eabi/lib\libc.a(lib_a-reent.o)
 .debug_frame   0x000014e4       0x20 c:/program files (x86)/codesourcery/sourcery_codebench_lite_for_arm_eabi/bin/../lib/gcc/arm-none-eabi/4.6.1/../../../../arm-none-eabi/lib\libc.a(lib_a-s_fpclassify.o)
 .debug_frame   0x00001504       0x30 c:/program files (x86)/codesourcery/sourcery_codebench_lite_for_arm_eabi/bin/../lib/gcc/arm-none-eabi/4.6.1/../../../../arm-none-eabi/lib\libc.a(lib_a-strcmp.o)
 .debug_frame   0x00001534       0x20 c:/program files (x86)/codesourcery/sourcery_codebench_lite_for_arm_eabi/bin/../lib/gcc/arm-none-eabi/4.6.1/../../../../arm-none-eabi/lib\libc.a(lib_a-strlen.o)
 .debug_frame   0x00001554       0x64 c:/program files (x86)/codesourcery/sourcery_codebench_lite_for_arm_eabi/bin/../lib/gcc/arm-none-eabi/4.6.1/../../../../arm-none-eabi/lib\libc.a(lib_a-svfiprintf.o)
 .debug_frame   0x000015b8       0x28 c:/program files (x86)/codesourcery/sourcery_codebench_lite_for_arm_eabi/bin/../lib/gcc/arm-none-eabi/4.6.1/../../../../arm-none-eabi/lib\libc.a(lib_a-callocr.o)
 .debug_frame   0x000015e0       0x2c c:/program files (x86)/codesourcery/sourcery_codebench_lite_for_arm_eabi/bin/../lib/gcc/arm-none-eabi/4.6.1/../../../../arm-none-eabi/lib\libc.a(lib_a-memmove.o)
 .debug_frame   0x0000160c       0x38 c:/program files (x86)/codesourcery/sourcery_codebench_lite_for_arm_eabi/bin/../lib/gcc/arm-none-eabi/4.6.1/../../../../arm-none-eabi/lib\libc.a(lib_a-reallocr.o)
